(dp0
S'216'
p1
(lp2
S'2160032'
p3
aS'2160045'
p4
aS'2160048'
p5
aS'2160040'
p6
aS'2160044'
p7
aS'2160046'
p8
aS'2160047'
p9
aS'2160031'
p10
aS'2160030'
p11
aS'2160033'
p12
asS'217'
p13
(lp14
S'2170054'
p15
aS'2170052'
p16
aS'2170053'
p17
aS'2170051'
p18
aS'2170039'
p19
aS'2170042'
p20
asS'214'
p21
(lp22
S'2140046'
p23
aS'2140029'
p24
aS'2140049'
p25
aS'2140047'
p26
aS'2140044'
p27
aS'2140051'
p28
aS'2140050'
p29
aS'2140045'
p30
aS'2140048'
p31
aS'2140032'
p32
asS'215'
p33
(lp34
S'2150036'
p35
aS'2150034'
p36
aS'2150033'
p37
aS'2150044'
p38
aS'2150052'
p39
aS'2150053'
p40
aS'2150051'
p41
aS'2150054'
p42
asS'212'
p43
(lp44
S'2120022'
p45
aS'2120023'
p46
aS'2120021'
p47
asS'210'
p48
(lp49
S'2100042'
p50
aS'2100043'
p51
aS'2100041'
p52
aS'2100023'
p53
aS'2100022'
p54
asS'459'
p55
(lp56
S'4590012'
p57
aS'4590010'
p58
aS'4590011'
p59
asS'608'
p60
(lp61
S'6080005'
p62
asS'132'
p63
(lp64
S'1320027'
p65
aS'1320026'
p66
asS'131'
p67
(lp68
S'1310039'
p69
aS'1310038'
p70
aS'1310034'
p71
aS'1310037'
p72
aS'1310036'
p73
aS'1310035'
p74
aS'1310033'
p75
aS'1310040'
p76
asS'137'
p77
(lp78
S'1370024'
p79
aS'1370036'
p80
asS'136'
p81
(lp82
S'1360044'
p83
aS'1360041'
p84
aS'1360043'
p85
aS'1360042'
p86
aS'1360049'
p87
aS'1360058'
p88
aS'1360062'
p89
asS'134'
p90
(lp91
S'1340119'
p92
aS'1340118'
p93
aS'1340124'
p94
aS'1340085'
p95
aS'1340132'
p96
aS'1340131'
p97
aS'1340130'
p98
aS'1340091'
p99
aS'1340120'
p100
aS'1340121'
p101
aS'1340122'
p102
aS'1340123'
p103
aS'1340125'
p104
aS'1340126'
p105
aS'1340127'
p106
aS'1340128'
p107
aS'1340129'
p108
asS'225'
p109
(lp110
S'2250067'
p111
aS'2250053'
p112
aS'2250052'
p113
aS'2250049'
p114
aS'2250073'
p115
aS'2250072'
p116
aS'2250071'
p117
aS'2250070'
p118
aS'2250076'
p119
aS'2250075'
p120
aS'2250074'
p121
aS'2250057'
p122
aS'2250056'
p123
aS'2250051'
p124
aS'2250069'
p125
aS'2250068'
p126
asS'24'
p127
(lp128
S'240042'
p129
aS'240043'
p130
aS'240044'
p131
aS'240045'
p132
aS'240059'
p133
aS'240050'
p134
aS'240060'
p135
asS'429'
p136
(lp137
S'4290096'
p138
aS'4290097'
p139
aS'4290109'
p140
aS'4290108'
p141
aS'4290105'
p142
aS'4290107'
p143
aS'4290110'
p144
aS'4290111'
p145
aS'4290098'
p146
aS'4290068'
p147
aS'4290102'
p148
aS'4290067'
p149
aS'4290095'
p150
aS'4290094'
p151
aS'4290093'
p152
aS'4290092'
p153
asS'26'
p154
(lp155
S'260019'
p156
aS'260018'
p157
aS'260020'
p158
aS'260021'
p159
asS'27'
p160
(lp161
S'270016'
p162
aS'270021'
p163
asS'21'
p164
(lp165
S'210036'
p166
aS'210025'
p167
asS'22'
p168
(lp169
S'220103'
p170
aS'220106'
p171
aS'220105'
p172
aS'220104'
p173
aS'220074'
p174
asS'23'
p175
(lp176
S'230068'
p177
aS'230070'
p178
aS'230071'
p179
aS'230065'
p180
aS'230064'
p181
aS'230067'
p182
aS'230066'
p183
aS'230069'
p184
asS'211'
p185
(lp186
S'2110069'
p187
aS'2110068'
p188
aS'2110076'
p189
aS'2110046'
p190
aS'2110045'
p191
aS'2110044'
p192
aS'2110075'
p193
asS'28'
p194
(lp195
S'280059'
p196
aS'280058'
p197
aS'280057'
p198
aS'280056'
p199
aS'280060'
p200
aS'280071'
p201
aS'280070'
p202
aS'280072'
p203
asS'29'
p204
(lp205
S'290065'
p206
aS'290064'
p207
aS'290063'
p208
aS'290062'
p209
aS'290061'
p210
aS'290060'
p211
asS'222'
p212
(lp213
S'2220035'
p214
aS'2220038'
p215
aS'2220039'
p216
aS'2220034'
p217
aS'2220036'
p218
aS'2220037'
p219
asS'4'
p220
(lp221
S'040019'
p222
aS'040018'
p223
aS'040020'
p224
aS'040021'
p225
asS'8'
p226
(lp227
S'080069'
p228
aS'080073'
p229
aS'080072'
p230
aS'080071'
p231
aS'080070'
p232
aS'080041'
p233
aS'080046'
p234
asS'96'
p235
(lp236
S'960046'
p237
aS'960045'
p238
aS'960044'
p239
aS'960043'
p240
aS'960042'
p241
aS'960048'
p242
asS'34E'
p243
(lp244
S'34E0054'
p245
aS'34E0050'
p246
aS'34E0067'
p247
aS'34E0066'
p248
aS'34E0065'
p249
aS'34E0069'
p250
aS'34E0068'
p251
aS'34E0074'
p252
aS'34E0070'
p253
aS'34E0071'
p254
aS'34E0072'
p255
aS'34E0073'
p256
aS'34E0039'
p257
aS'34E0036'
p258
aS'34E0041'
p259
aS'34E0040'
p260
aS'34E0043'
p261
aS'34E0042'
p262
aS'34E0044'
p263
aS'34E0049'
p264
asS'119'
p265
(lp266
S'1190037'
p267
aS'1190030'
p268
aS'1190038'
p269
aS'1190029'
p270
asS'990'
p271
(lp272
S'9900001'
p273
aS'9900002'
p274
asS'716'
p275
(lp276
S'7160001'
p277
aS'7160002'
p278
asS'714'
p279
(lp280
S'7140004'
p281
aS'7140002'
p282
aS'7140001'
p283
aS'7140006'
p284
aS'7140005'
p285
aS'7140003'
p286
asS'713'
p287
(lp288
S'7130013'
p289
aS'7130012'
p290
aS'7130011'
p291
aS'7130010'
p292
asS'712'
p293
(lp294
S'7120031'
p295
aS'7120029'
p296
aS'7120030'
p297
aS'7120032'
p298
asS'710'
p299
(lp300
S'7100003'
p301
aS'7100002'
p302
aS'7100001'
p303
aS'7100007'
p304
aS'7100005'
p305
aS'7100008'
p306
aS'7100006'
p307
aS'7100016'
p308
asS'120'
p309
(lp310
S'1200066'
p311
aS'1200064'
p312
aS'1200065'
p313
aS'1200062'
p314
aS'1200067'
p315
aS'1200071'
p316
aS'1200070'
p317
asS'121'
p318
(lp319
S'1210037'
p320
aS'1210028'
p321
aS'1210027'
p322
aS'1210026'
p323
aS'1210025'
p324
asS'830t'
p325
(lp326
S'830t0006'
p327
aS'830t0005'
p328
asS'9701'
p329
(lp330
S'97010026'
p331
asS'9702'
p332
(lp333
S'97020015'
p334
asS'9703'
p335
(lp336
S'97030019'
p337
asS'59'
p338
(lp339
S'590020'
p340
aS'590019'
p341
aS'590018'
p342
aS'590017'
p343
asS'55'
p344
(lp345
S'550026'
p346
aS'550024'
p347
aS'550039'
p348
aS'550038'
p349
asS'842_'
p350
(lp351
S'842_0007'
p352
asS'57'
p353
(lp354
S'570070'
p355
aS'570063'
p356
aS'570058'
p357
aS'570090'
p358
aS'570061'
p359
aS'570062'
p360
asS'51'
p361
(lp362
S'510029'
p363
aS'510038'
p364
aS'510034'
p365
aS'510037'
p366
aS'510031'
p367
asS'50'
p368
(lp369
S'500016'
p370
aS'500015'
p371
asS'52'
p372
(lp373
S'520076'
p374
aS'520077'
p375
aS'520075'
p376
aS'520102'
p377
aS'520103'
p378
aS'520106'
p379
aS'520107'
p380
aS'520104'
p381
aS'520105'
p382
aS'520094'
p383
aS'520092'
p384
aS'520093'
p385
asS'411'
p386
(lp387
S'4110056'
p388
aS'4110057'
p389
aS'4110070'
p390
aS'4110071'
p391
asS'830_'
p392
(lp393
S'830_0003'
p394
aS'830_0004'
p395
asS'988'
p396
(lp397
S'9880003'
p398
aS'9880006'
p399
aS'9880005'
p400
aS'9880002'
p401
asS'989'
p402
(lp403
S'9890009'
p404
aS'9890004'
p405
aS'9890008'
p406
aS'9890003'
p407
asS'708'
p408
(lp409
S'7080042'
p410
aS'7080043'
p411
aS'7080045'
p412
aS'7080041'
p413
aS'7080038'
p414
aS'7080050'
p415
asS'982'
p416
(lp417
S'9820004'
p418
aS'9820001'
p419
aS'9820002'
p420
aS'9820003'
p421
asS'983'
p422
(lp423
S'9830006'
p424
aS'9830005'
p425
asS'980'
p426
(lp427
S'9800001'
p428
aS'9800002'
p429
asS'981'
p430
(lp431
S'9810007'
p432
aS'9810006'
p433
aS'9810001'
p434
aS'9810002'
p435
asS'986'
p436
(lp437
S'9860001'
p438
aS'9860002'
p439
asS'987'
p440
(lp441
S'9870001'
p442
aS'9870002'
p443
asS'984'
p444
(lp445
S'9840002'
p446
aS'9840001'
p447
asS'192'
p448
(lp449
S'1920020'
p450
aS'1920018'
p451
asS'114'
p452
(lp453
S'1140014'
p454
aS'1140015'
p455
asS'117'
p456
(lp457
S'1170058'
p458
aS'1170057'
p459
aS'1170081'
p460
aS'1170079'
p461
aS'1170066'
p462
aS'1170067'
p463
aS'1170060'
p464
asS'116'
p465
(lp466
S'1160072'
p467
aS'1160050'
p468
aS'1160051'
p469
aS'1160052'
p470
aS'1160060'
p471
asS'111'
p472
(lp473
S'1110089'
p474
aS'1110074'
p475
aS'1110071'
p476
aS'1110073'
p477
aS'1110072'
p478
aS'1110096'
p479
aS'1110088'
p480
asS'110'
p481
(lp482
S'1100053'
p483
aS'1100056'
p484
aS'1100057'
p485
aS'1100054'
p486
aS'1100055'
p487
asS'112'
p488
(lp489
S'1120047'
p490
aS'1120046'
p491
aS'1120059'
p492
aS'1120060'
p493
aS'1120061'
p494
asS'194'
p495
(lp496
S'1940030'
p497
aS'1940034'
p498
asS'83'
p499
(lp500
S'830061'
p501
aS'830060'
p502
aS'830035'
p503
aS'830036'
p504
aS'830037'
p505
asS'80'
p506
(lp507
S'800053'
p508
aS'800029'
p509
asS'5'
p510
(lp511
S'050028'
p512
aS'050027'
p513
asS'86'
p514
(lp515
S'860053'
p516
aS'860052'
p517
aS'860051'
p518
asS'87'
p519
(lp520
S'870054'
p521
aS'870055'
p522
aS'870053'
p523
aS'870090'
p524
aS'870091'
p525
aS'870059'
p526
asS'84'
p527
(lp528
S'840026'
p529
aS'840027'
p530
aS'840029'
p531
aS'840028'
p532
asS'85'
p533
(lp534
S'850026'
p535
aS'850028'
p536
asS'558'
p537
(lp538
S'5580032'
p539
aS'5580033'
p540
aS'5580030'
p541
aS'5580031'
p542
asS'851_'
p543
(lp544
S'851_0009'
p545
aS'851_0008'
p546
asS'823t'
p547
(lp548
S'823t0002'
p549
asS'931_'
p550
(lp551
S'931_0012'
p552
aS'931_0011'
p553
aS'931_0010'
p554
aS'931_0014'
p555
aS'931_0013'
p556
aS'931_0009'
p557
asS'428'
p558
(lp559
S'4280016'
p560
aS'4280010'
p561
aS'4280009'
p562
asS'725'
p563
(lp564
S'7250029'
p565
aS'7250028'
p566
asS'948_'
p567
(lp568
S'948_0003'
p569
asS'7'
p570
(lp571
S'070042'
p572
aS'070035'
p573
aS'070054'
p574
aS'070053'
p575
aS'070051'
p576
asS'985'
p577
(lp578
S'9850002'
p579
aS'9850001'
p580
asS'424'
p581
(lp582
S'4240027'
p583
aS'4240026'
p584
asS'426'
p585
(lp586
S'4260125'
p587
aS'4260124'
p588
aS'4260123'
p589
aS'4260095'
p590
aS'4260109'
p591
aS'4260096'
p592
aS'4260081'
p593
aS'4260080'
p594
aS'4260077'
p595
aS'4260083'
p596
aS'4260082'
p597
aS'4260108'
p598
aS'4260079'
p599
aS'4260076'
p600
asS'852k'
p601
(lp602
S'852k0004'
p603
aS'852k0003'
p604
asS'449'
p605
(lp606
S'4490028'
p607
aS'4490029'
p608
aS'4490026'
p609
aS'4490019'
p610
aS'4490027'
p611
asS'448'
p612
(lp613
S'4480022'
p614
aS'4480014'
p615
aS'4480023'
p616
aS'4480025'
p617
aS'4480024'
p618
asS'813k'
p619
(lp620
S'813k0003'
p621
aS'813k0004'
p622
asS'442'
p623
(lp624
S'4420099'
p625
aS'4420097'
p626
aS'4420070'
p627
aS'4420071'
p628
aS'4420072'
p629
aS'4420076'
p630
aS'4420069'
p631
aS'4420104'
p632
aS'4420100'
p633
aS'4420101'
p634
aS'4420102'
p635
aS'4420103'
p636
aS'4420074'
p637
aS'4420073'
p638
asS'441'
p639
(lp640
S'4410079'
p641
aS'4410078'
p642
aS'4410077'
p643
aS'4410076'
p644
aS'4410081'
p645
aS'4410107'
p646
aS'4410105'
p647
aS'4410106'
p648
aS'4410108'
p649
aS'4410104'
p650
aS'4410096'
p651
asS'245'
p652
(lp653
S'2450035'
p654
aS'2450036'
p655
aS'2450038'
p656
aS'2450034'
p657
aS'2450033'
p658
aS'2450037'
p659
asS'108'
p660
(lp661
S'1080058'
p662
aS'1080073'
p663
aS'1080070'
p664
aS'1080057'
p665
aS'1080065'
p666
aS'1080066'
p667
aS'1080069'
p668
asS'109'
p669
(lp670
S'1090061'
p671
aS'1090062'
p672
aS'1090069'
p673
aS'1090070'
p674
asS'240'
p675
(lp676
S'2400053'
p677
aS'2400051'
p678
aS'2400050'
p679
aS'2400064'
p680
aS'2400057'
p681
aS'2400054'
p682
aS'2400044'
p683
aS'2400046'
p684
aS'2400048'
p685
aS'2400074'
p686
aS'2400075'
p687
aS'2400076'
p688
aS'2400077'
p689
aS'2400047'
p690
aS'2400049'
p691
asS'813t'
p692
(lp693
S'813t0004'
p694
aS'813t0003'
p695
asS'946_'
p696
(lp697
S'946_0010'
p698
aS'946_0009'
p699
asS'880_'
p700
(lp701
S'880_0009'
p702
aS'880_0011'
p703
aS'880_0010'
p704
aS'880_0012'
p705
asS'106'
p706
(lp707
S'1060100'
p708
aS'1060118'
p709
aS'1060116'
p710
aS'1060117'
p711
aS'1060112'
p712
aS'1060110'
p713
aS'1060111'
p714
aS'1060115'
p715
aS'1060097'
p716
aS'1060099'
p717
aS'1060098'
p718
asS'104'
p719
(lp720
S'1040034'
p721
aS'1040033'
p722
asS'105'
p723
(lp724
S'1050036'
p725
aS'1050037'
p726
asS'39'
p727
(lp728
S'390048'
p729
aS'390042'
p730
aS'390043'
p731
aS'390046'
p732
aS'390049'
p733
aS'390059'
p734
aS'390051'
p735
aS'390050'
p736
asS'38'
p737
(lp738
S'380043'
p739
aS'380042'
p740
aS'380044'
p741
aS'380041'
p742
aS'380045'
p743
aS'380050'
p744
aS'380051'
p745
asS'33'
p746
(lp747
S'330048'
p748
aS'330049'
p749
aS'330042'
p750
aS'330043'
p751
aS'330044'
p752
aS'330045'
p753
aS'330046'
p754
aS'330047'
p755
aS'330051'
p756
asS'32'
p757
(lp758
S'320079'
p759
aS'320075'
p760
aS'320076'
p761
aS'320069'
p762
aS'320068'
p763
aS'320063'
p764
aS'320067'
p765
aS'320066'
p766
aS'320065'
p767
aS'320064'
p768
aS'320080'
p769
asS'31'
p770
(lp771
S'310037'
p772
aS'310038'
p773
asS'30'
p774
(lp775
S'300021'
p776
aS'300020'
p777
aS'300022'
p778
aS'300019'
p779
asS'823_'
p780
(lp781
S'823_0002'
p782
asS'36'
p783
(lp784
S'360056'
p785
aS'360057'
p786
aS'360054'
p787
aS'360055'
p788
aS'360053'
p789
aS'360058'
p790
aS'360059'
p791
aS'360072'
p792
aS'360103'
p793
aS'360104'
p794
aS'360105'
p795
aS'360106'
p796
aS'360064'
p797
aS'360063'
p798
asS'35'
p799
(lp800
S'350039'
p801
aS'350045'
p802
aS'350041'
p803
aS'350051'
p804
aS'350053'
p805
aS'350052'
p806
asS'34'
p807
(lp808
S'340117'
p809
aS'340119'
p810
aS'340118'
p811
aS'340122'
p812
asS'880t'
p813
(lp814
S'880t0013'
p815
aS'880t0012'
p816
aS'880t0015'
p817
aS'880t0014'
p818
asS'813_'
p819
(lp820
S'813_0004'
p821
aS'813_0003'
p822
aS'813_0005'
p823
asS'852_'
p824
(lp825
S'852_0013'
p826
aS'852_0012'
p827
aS'852_0014'
p828
asS'94'
p829
(lp830
S'940053'
p831
aS'940047'
p832
aS'940046'
p833
aS'940048'
p834
asS'439'
p835
(lp836
S'4390023'
p837
aS'4390025'
p838
aS'4390024'
p839
aS'4390026'
p840
aS'4390037'
p841
aS'4390038'
p842
aS'4390022'
p843
aS'4390036'
p844
aS'4390035'
p845
asS'436'
p846
(lp847
S'4360071'
p848
aS'4360070'
p849
aS'4360063'
p850
aS'4360062'
p851
aS'4360049'
p852
aS'4360072'
p853
aS'4360044'
p854
aS'4360045'
p855
aS'4360046'
p856
aS'4360047'
p857
aS'4360048'
p858
asS'434'
p859
(lp860
S'4340020'
p861
aS'4340021'
p862
asS'435'
p863
(lp864
S'4350050'
p865
aS'4350026'
p866
aS'4350029'
p867
aS'4350027'
p868
aS'4350043'
p869
aS'4350046'
p870
aS'4350048'
p871
aS'4350033'
p872
aS'4350030'
p873
aS'4350044'
p874
aS'4350042'
p875
aS'4350041'
p876
aS'4350040'
p877
aS'4350047'
p878
aS'4350049'
p879
asS'810_'
p880
(lp881
S'810_0004'
p882
aS'810_0005'
p883
asS'430'
p884
(lp885
S'4300044'
p886
aS'4300043'
p887
aS'4300049'
p888
aS'4300051'
p889
aS'4300050'
p890
aS'4300053'
p891
aS'4300052'
p892
asS'431'
p893
(lp894
S'4310006'
p895
aS'4310005'
p896
aS'4310008'
p897
asS'810t'
p898
(lp899
S'810t0003'
p900
aS'810t0004'
p901
asS'627'
p902
(lp903
S'6270025'
p904
aS'6270026'
p905
asS'450'
p906
(lp907
S'4500069'
p908
aS'4500066'
p909
aS'4500068'
p910
aS'4500067'
p911
aS'4500071'
p912
aS'4500070'
p913
asS'451'
p914
(lp915
S'4510027'
p916
aS'4510026'
p917
aS'4510029'
p918
aS'4510028'
p919
asS'455'
p920
(lp921
S'4550098'
p922
aS'4550096'
p923
aS'4550097'
p924
aS'4550094'
p925
aS'4550095'
p926
aS'4550078'
p927
aS'4550082'
p928
aS'4550081'
p929
aS'4550080'
p930
aS'4550085'
p931
aS'4550084'
p932
aS'4550087'
p933
aS'4550086'
p934
aS'4550088'
p935
aS'4550079'
p936
asS'456'
p937
(lp938
S'4560023'
p939
aS'4560024'
p940
aS'4560025'
p941
aS'4560029'
p942
aS'4560030'
p943
asS'60'
p944
(lp945
S'600031'
p946
aS'600030'
p947
aS'600032'
p948
aS'600037'
p949
aS'600041'
p950
aS'600028'
p951
aS'600029'
p952
asS'62'
p953
(lp954
S'620052'
p955
aS'620051'
p956
aS'620050'
p957
aS'620053'
p958
aS'620048'
p959
aS'620049'
p960
asS'64'
p961
(lp962
S'640039'
p963
aS'640044'
p964
aS'640045'
p965
aS'640040'
p966
aS'640043'
p967
asS'65'
p968
(lp969
S'650026'
p970
aS'650025'
p971
asS'66'
p972
(lp973
S'660059'
p974
aS'660058'
p975
aS'660055'
p976
aS'660057'
p977
aS'660052'
p978
aS'660056'
p979
asS'67'
p980
(lp981
S'670027'
p982
aS'670026'
p983
asS'68'
p984
(lp985
S'680023'
p986
aS'680024'
p987
asS'69'
p988
(lp989
S'690043'
p990
aS'690042'
p991
aS'690044'
p992
aS'690069'
p993
aS'690068'
p994
asS'100'
p995
(lp996
S'1000047'
p997
aS'1000048'
p998
aS'1000035'
p999
aS'1000034'
p1000
aS'1000033'
p1001
aS'1000032'
p1002
asS'171'
p1003
(lp1004
S'1710011'
p1005
asS'170'
p1006
(lp1007
S'1700018'
p1008
aS'1700019'
p1009
aS'1700021'
p1010
aS'1700022'
p1011
asS'37'
p1012
(lp1013
S'370024'
p1014
aS'370022'
p1015
aS'370023'
p1016
aS'370021'
p1017
asS'101'
p1018
(lp1019
S'1010130'
p1020
aS'1010131'
p1021
aS'1010094'
p1022
aS'1010095'
p1023
aS'1010093'
p1024
aS'1010078'
p1025
aS'1010113'
p1026
aS'1010114'
p1027
aS'1010079'
p1028
aS'1010081'
p1029
aS'1010080'
p1030
aS'1010088'
p1031
asS'746'
p1032
(lp1033
S'7460006'
p1034
aS'7460007'
p1035
asS'933_'
p1036
(lp1037
S'933_0009'
p1038
aS'933_0012'
p1039
aS'933_0011'
p1040
aS'933_0010'
p1041
asS'913_'
p1042
(lp1043
S'913_0010'
p1044
asS'979'
p1045
(lp1046
S'9790008'
p1047
aS'9790001'
p1048
aS'9790005'
p1049
aS'9790003'
p1050
aS'9790002'
p1051
aS'9790006'
p1052
aS'9790007'
p1053
aS'9790004'
p1054
asS'195'
p1055
(lp1056
S'1950006'
p1057
aS'1950013'
p1058
asS'554'
p1059
(lp1060
S'5540021'
p1061
aS'5540023'
p1062
aS'5540022'
p1063
aS'5540020'
p1064
asS'504'
p1065
(lp1066
S'5040031'
p1067
aS'5040040'
p1068
aS'5040041'
p1069
aS'5040039'
p1070
asS'852t'
p1071
(lp1072
S'852t0013'
p1073
aS'852t0014'
p1074
asS'502'
p1075
(lp1076
S'5020017'
p1077
aS'5020016'
p1078
asS'503'
p1079
(lp1080
S'5030026'
p1081
aS'5030034'
p1082
aS'5030027'
p1083
aS'5030025'
p1084
asS'501'
p1085
(lp1086
S'5010054'
p1087
aS'5010055'
p1088
aS'5010048'
p1089
aS'5010047'
p1090
aS'5010049'
p1091
asS'751'
p1092
(lp1093
S'7510011'
p1094
aS'7510010'
p1095
asS'97'
p1096
(lp1097
S'970024'
p1098
aS'970023'
p1099
asS'465'
p1100
(lp1101
S'4650018'
p1102
aS'4650014'
p1103
aS'4650011'
p1104
aS'4650017'
p1105
asS'191'
p1106
(lp1107
S'1910023'
p1108
aS'1910029'
p1109
asS'701'
p1110
(lp1111
S'7010045'
p1112
aS'7010047'
p1113
aS'7010046'
p1114
asS'99'
p1115
(lp1116
S'990059'
p1117
aS'990058'
p1118
aS'990057'
p1119
aS'990056'
p1120
aS'990060'
p1121
aS'990061'
p1122
asS'193'
p1123
(lp1124
S'1930031'
p1125
aS'1930030'
p1126
asS'91'
p1127
(lp1128
S'910023'
p1129
aS'910026'
p1130
aS'910040'
p1131
aS'910041'
p1132
asS'90'
p1133
(lp1134
S'900030'
p1135
aS'900026'
p1136
aS'900025'
p1137
asS'93'
p1138
(lp1139
S'930045'
p1140
aS'930046'
p1141
aS'930047'
p1142
aS'930044'
p1143
aS'930048'
p1144
aS'930049'
p1145
aS'930059'
p1146
aS'930058'
p1147
aS'930060'
p1148
asS'92'
p1149
(lp1150
S'920069'
p1151
aS'920050'
p1152
aS'920051'
p1153
aS'920052'
p1154
aS'920046'
p1155
aS'920045'
p1156
aS'920048'
p1157
aS'920047'
p1158
asS'95'
p1159
(lp1160
S'950045'
p1161
aS'950060'
p1162
aS'950068'
p1163
aS'950044'
p1164
aS'950058'
p1165
aS'950057'
p1166
asS'882_'
p1167
(lp1168
S'882_0005'
p1169
aS'882_0006'
p1170
asS'221'
p1171
(lp1172
S'2210017'
p1173
aS'2210018'
p1174
asS'220'
p1175
(lp1176
S'2200030'
p1177
aS'2200025'
p1178
aS'2200024'
p1179
aS'2200027'
p1180
aS'2200026'
p1181
aS'2200029'
p1182
aS'2200028'
p1183
asS'11'
p1184
(lp1185
S'110038'
p1186
aS'110031'
p1187
aS'110033'
p1188
aS'110037'
p1189
aS'110044'
p1190
asS'10'
p1191
(lp1192
S'100069'
p1193
aS'100049'
p1194
aS'100048'
p1195
aS'100041'
p1196
aS'100045'
p1197
aS'100044'
p1198
aS'100047'
p1199
aS'100046'
p1200
aS'100070'
p1201
aS'100071'
p1202
asS'505'
p1203
(lp1204
S'5050023'
p1205
aS'5050024'
p1206
aS'5050022'
p1207
aS'5050021'
p1208
asS'15'
p1209
(lp1210
S'150079'
p1211
aS'150078'
p1212
aS'150077'
p1213
aS'150081'
p1214
aS'150082'
p1215
aS'150083'
p1216
aS'150080'
p1217
aS'150084'
p1218
aS'150085'
p1219
aS'150086'
p1220
aS'150087'
p1221
asS'14'
p1222
(lp1223
S'140058'
p1224
aS'140056'
p1225
aS'140057'
p1226
aS'140055'
p1227
aS'140043'
p1228
aS'140040'
p1229
asS'17'
p1230
(lp1231
S'170037'
p1232
aS'170036'
p1233
asS'16'
p1234
(lp1235
S'160094'
p1236
aS'160095'
p1237
aS'160096'
p1238
aS'160093'
p1239
aS'160071'
p1240
aS'160086'
p1241
aS'160065'
p1242
aS'160067'
p1243
aS'160069'
p1244
aS'160068'
p1245
asS'19'
p1246
(lp1247
S'190079'
p1248
aS'190078'
p1249
aS'190075'
p1250
aS'190074'
p1251
aS'190077'
p1252
aS'190073'
p1253
aS'190080'
p1254
aS'190081'
p1255
asS'18'
p1256
(lp1257
S'180026'
p1258
aS'180025'
p1259
asS'88'
p1260
(lp1261
S'880047'
p1262
aS'880087'
p1263
aS'880086'
p1264
aS'880053'
p1265
aS'880056'
p1266
aS'880048'
p1267
asS'89'
p1268
(lp1269
S'890040'
p1270
aS'890030'
p1271
aS'890031'
p1272
aS'890058'
p1273
aS'890057'
p1274
aS'890051'
p1275
aS'890052'
p1276
aS'890053'
p1277
asS'882t'
p1278
(lp1279
S'882t0005'
p1280
aS'882t0006'
p1281
asS'57A'
p1282
(lp1283
S'57A0020'
p1284
aS'57A0019'
p1285
asS'903_'
p1286
(lp1287
S'903_0018'
p1288
aS'903_0017'
p1289
asS'741'
p1290
(lp1291
S'7410009'
p1292
aS'7410008'
p1293
aS'7410010'
p1294
aS'7410017'
p1295
aS'7410018'
p1296
aS'7410007'
p1297
asS'742'
p1298
(lp1299
S'7420014'
p1300
aS'7420020'
p1301
aS'7420013'
p1302
aS'7420021'
p1303
aS'7420018'
p1304
aS'7420019'
p1305
aS'7420012'
p1306
aS'7420015'
p1307
aS'7420017'
p1308
aS'7420016'
p1309
asS'899_'
p1310
(lp1311
S'899_0006'
p1312
aS'899_0005'
p1313
asS'851t'
p1314
(lp1315
S'851t0008'
p1316
aS'851t0009'
p1317
asS'747'
p1318
(lp1319
S'7470019'
p1320
aS'7470015'
p1321
asS'749'
p1322
(lp1323
S'7490010'
p1324
aS'7490011'
p1325
asS'556'
p1326
(lp1327
S'5560021'
p1328
aS'5560020'
p1329
aS'5560013'
p1330
aS'5560019'
p1331
asS'842t'
p1332
(lp1333
S'842t0007'
p1334
asS'553'
p1335
(lp1336
S'5530027'
p1337
aS'5530037'
p1338
aS'5530044'
p1339
aS'5530046'
p1340
aS'5530030'
p1341
aS'5530045'
p1342
asS'831t'
p1343
(lp1344
S'831t0008'
p1345
aS'831t0009'
p1346
asS'238'
p1347
(lp1348
S'2380055'
p1349
aS'2380054'
p1350
aS'2380053'
p1351
aS'2380052'
p1352
aS'2380048'
p1353
aS'2380049'
p1354
aS'2380047'
p1355
aS'2380056'
p1356
aS'2380050'
p1357
aS'2380051'
p1358
asS'236'
p1359
(lp1360
S'2360015'
p1361
aS'2360014'
p1362
aS'2360013'
p1363
aS'2360012'
p1364
asS'230'
p1365
(lp1366
S'2300017'
p1367
aS'2300016'
p1368
aS'2300015'
p1369
aS'2300018'
p1370
asS'47'
p1371
(lp1372
S'470069'
p1373
aS'470054'
p1374
aS'470055'
p1375
aS'470046'
p1376
asS'44'
p1377
(lp1378
S'440064'
p1379
aS'440065'
p1380
aS'440060'
p1381
aS'440062'
p1382
aS'440063'
p1383
asS'45'
p1384
(lp1385
S'450050'
p1386
aS'450051'
p1387
aS'450052'
p1388
aS'450053'
p1389
aS'450048'
p1390
aS'450066'
p1391
aS'450049'
p1392
asS'42'
p1393
(lp1394
S'420028'
p1395
aS'420029'
p1396
asS'43'
p1397
(lp1398
S'430029'
p1399
aS'430028'
p1400
asS'40'
p1401
(lp1402
S'400026'
p1403
aS'400033'
p1404
aS'400032'
p1405
aS'400031'
p1406
aS'400035'
p1407
aS'400034'
p1408
asS'41'
p1409
(lp1410
S'410045'
p1411
aS'410044'
p1412
aS'410043'
p1413
asS'1'
p1414
(lp1415
S'010058'
p1416
aS'010038'
p1417
asS'326'
p1418
(lp1419
S'3260032'
p1420
aS'3260028'
p1421
aS'3260029'
p1422
aS'3260045'
p1423
aS'3260046'
p1424
asS'325'
p1425
(lp1426
S'3250038'
p1427
aS'3250034'
p1428
aS'3250035'
p1429
aS'3250037'
p1430
aS'3250036'
p1431
asS'9'
p1432
(lp1433
S'090078'
p1434
aS'090079'
p1435
aS'090060'
p1436
aS'090057'
p1437
aS'090059'
p1438
aS'090056'
p1439
asS'831_'
p1440
(lp1441
S'831_0009'
p1442
aS'831_0008'
p1443
asS'201'
p1444
(lp1445
S'2010030'
p1446
aS'2010032'
p1447
aS'2010039'
p1448
aS'2010038'
p1449
aS'2010022'
p1450
aS'2010023'
p1451
aS'2010040'
p1452
aS'2010041'
p1453
aS'2010042'
p1454
asS'202'
p1455
(lp1456
S'2020024'
p1457
aS'2020027'
p1458
aS'2020032'
p1459
aS'2020043'
p1460
aS'2020042'
p1461
aS'2020044'
p1462
aS'2020041'
p1463
aS'2020040'
p1464
aS'2020033'
p1465
aS'2020030'
p1466
asS'350'
p1467
(lp1468
S'3500061'
p1469
aS'3500081'
p1470
aS'3500069'
p1471
aS'3500080'
p1472
aS'3500084'
p1473
aS'3500083'
p1474
aS'3500082'
p1475
aS'3500079'
p1476
asS'77'
p1477
(lp1478
S'770089'
p1479
aS'770060'
p1480
aS'770090'
p1481
aS'770057'
p1482
asS'76'
p1483
(lp1484
S'760052'
p1485
aS'760053'
p1486
aS'760050'
p1487
aS'760051'
p1488
aS'760054'
p1489
aS'760049'
p1490
asS'75'
p1491
(lp1492
S'750017'
p1493
aS'750016'
p1494
asS'74'
p1495
(lp1496
S'740021'
p1497
aS'740020'
p1498
asS'73'
p1499
(lp1500
S'730066'
p1501
aS'730067'
p1502
aS'730045'
p1503
aS'730046'
p1504
aS'730047'
p1505
aS'730048'
p1506
asS'72'
p1507
(lp1508
S'720027'
p1509
aS'720026'
p1510
aS'720025'
p1511
asS'71'
p1512
(lp1513
S'710031'
p1514
aS'710030'
p1515
aS'710036'
p1516
aS'710035'
p1517
aS'710034'
p1518
aS'710032'
p1519
asS'70'
p1520
(lp1521
S'700072'
p1522
aS'700078'
p1523
aS'700075'
p1524
aS'700089'
p1525
aS'700088'
p1526
aS'700080'
p1527
aS'700087'
p1528
aS'700086'
p1529
aS'700085'
p1530
aS'700051'
p1531
aS'700052'
p1532
aS'700053'
p1533
aS'700050'
p1534
aS'700054'
p1535
aS'700090'
p1536
aS'700091'
p1537
aS'700092'
p1538
asS'840t'
p1539
(lp1540
S'840t0005'
p1541
aS'840t0004'
p1542
asS'79'
p1543
(lp1544
S'790036'
p1545
aS'790035'
p1546
aS'790034'
p1547
asS'78'
p1548
(lp1549
S'780065'
p1550
aS'780064'
p1551
aS'780063'
p1552
aS'780041'
p1553
asS'70A'
p1554
(lp1555
S'70A0023'
p1556
aS'70A0022'
p1557
aS'70A0020'
p1558
aS'70A0021'
p1559
asS'354'
p1560
(lp1561
S'3540048'
p1562
aS'3540047'
p1563
aS'3540036'
p1564
aS'3540037'
p1565
aS'3540034'
p1566
aS'3540035'
p1567
aS'3540033'
p1568
asS'352'
p1569
(lp1570
S'3520035'
p1571
aS'3520036'
p1572
asS'351'
p1573
(lp1574
S'3510066'
p1575
aS'3510067'
p1576
asS'840_'
p1577
(lp1578
S'840_0004'
p1579
aS'840_0005'
p1580
as.