(dp0
S'216'
p1
(lp2
S'2160032'
p3
aS'2160048'
p4
aS'2160040'
p5
aS'2160044'
p6
aS'2160046'
p7
aS'2160031'
p8
aS'2160030'
p9
asS'Blue'
p10
(lp11
S'948_0003'
p12
aS'946_0010'
p13
aS'946_0009'
p14
asS'214'
p15
(lp16
S'2140046'
p17
aS'2140029'
p18
aS'2140049'
p19
aS'2140047'
p20
aS'2140044'
p21
aS'2140051'
p22
aS'2140050'
p23
aS'2140045'
p24
aS'2140048'
p25
aS'2140032'
p26
asS'215'
p27
(lp28
S'2150036'
p29
aS'2150034'
p30
aS'2150033'
p31
aS'2150044'
p32
aS'2150052'
p33
aS'2150053'
p34
aS'2150051'
p35
aS'2150054'
p36
asS'212'
p37
(lp38
S'2120022'
p39
aS'2120023'
p40
aS'2120021'
p41
asS'210'
p42
(lp43
S'2100042'
p44
aS'2100043'
p45
aS'2100041'
p46
aS'2100023'
p47
aS'2100022'
p48
asS'217'
p49
(lp50
S'2170054'
p51
aS'2170052'
p52
aS'2170053'
p53
aS'2170051'
p54
aS'2170039'
p55
aS'2170042'
p56
asS'132'
p57
(lp58
S'1320027'
p59
aS'1320026'
p60
asS'131'
p61
(lp62
S'1310039'
p63
aS'1310038'
p64
aS'1310034'
p65
aS'1310037'
p66
aS'1310036'
p67
aS'1310035'
p68
aS'1310033'
p69
aS'1310040'
p70
asS'137'
p71
(lp72
S'1370024'
p73
aS'1370036'
p74
asS'136'
p75
(lp76
S'1360044'
p77
aS'1360041'
p78
aS'1360043'
p79
aS'1360042'
p80
aS'1360049'
p81
aS'1360058'
p82
aS'1360062'
p83
asS'134'
p84
(lp85
S'1340119'
p86
aS'1340118'
p87
aS'1340124'
p88
aS'1340085'
p89
aS'1340132'
p90
aS'1340131'
p91
aS'1340130'
p92
aS'1340091'
p93
aS'1340120'
p94
aS'1340121'
p95
aS'1340122'
p96
aS'1340123'
p97
aS'1340125'
p98
aS'1340126'
p99
aS'1340127'
p100
aS'1340128'
p101
aS'1340129'
p102
asS'CR-Providence'
p103
(lp104
S'9890009'
p105
aS'9890004'
p106
aS'9890008'
p107
aS'9890003'
p108
asS'Green-D'
p109
(lp110
S'851_0009'
p111
aS'840_0004'
p112
aS'840_0005'
p113
aS'852_0013'
p114
aS'842_0007'
p115
aS'852_0012'
p116
aS'852_0014'
p117
aS'851_0008'
p118
asS'225'
p119
(lp120
S'2250067'
p121
aS'2250053'
p122
aS'2250052'
p123
aS'2250049'
p124
aS'2250073'
p125
aS'2250072'
p126
aS'2250071'
p127
aS'2250070'
p128
aS'2250076'
p129
aS'2250075'
p130
aS'2250074'
p131
aS'2250057'
p132
aS'2250056'
p133
aS'2250051'
p134
aS'2250069'
p135
aS'2250068'
p136
asS'441442'
p137
(lp138
S'4420072'
p139
aS'4420103'
p140
aS'4420074'
p141
asS'24'
p142
(lp143
S'240042'
p144
aS'240043'
p145
aS'240044'
p146
aS'240045'
p147
aS'240060'
p148
asS'26'
p149
(lp150
S'260019'
p151
aS'260018'
p152
aS'260020'
p153
aS'260021'
p154
asS'27'
p155
(lp156
S'270016'
p157
aS'270021'
p158
asS'21'
p159
(lp160
S'210036'
p161
aS'210025'
p162
asS'22'
p163
(lp164
S'220103'
p165
aS'220106'
p166
aS'220105'
p167
aS'220104'
p168
aS'220074'
p169
asS'23'
p170
(lp171
S'230068'
p172
aS'230070'
p173
aS'230071'
p174
aS'230065'
p175
aS'230064'
p176
aS'230067'
p177
aS'230066'
p178
aS'230069'
p179
asS'Mattapan'
p180
(lp181
S'899_0006'
p182
aS'899_0005'
p183
asS'211'
p184
(lp185
S'2110069'
p186
aS'2110068'
p187
aS'2110076'
p188
aS'2110046'
p189
aS'2110045'
p190
aS'2110044'
p191
aS'2110075'
p192
asS'28'
p193
(lp194
S'280059'
p195
aS'280058'
p196
aS'280057'
p197
aS'280056'
p198
aS'280060'
p199
aS'280071'
p200
aS'280070'
p201
aS'280072'
p202
asS'29'
p203
(lp204
S'290065'
p205
aS'290064'
p206
aS'290063'
p207
aS'290062'
p208
aS'290061'
p209
aS'290060'
p210
asS'94'
p211
(lp212
S'940053'
p213
aS'940047'
p214
aS'940046'
p215
aS'940048'
p216
asS'CR-Franklin'
p217
(lp218
S'9880003'
p219
aS'9880006'
p220
aS'9880005'
p221
aS'9880002'
p222
asS'4'
p223
(lp224
S'040019'
p225
aS'040018'
p226
aS'040020'
p227
aS'040021'
p228
asS'8'
p229
(lp230
S'080069'
p231
aS'080073'
p232
aS'080072'
p233
aS'080071'
p234
aS'080070'
p235
aS'080041'
p236
aS'080046'
p237
asS'96'
p238
(lp239
S'960046'
p240
aS'960045'
p241
aS'960044'
p242
aS'960043'
p243
aS'960042'
p244
aS'960048'
p245
asS'34E'
p246
(lp247
S'34E0054'
p248
aS'34E0050'
p249
aS'34E0067'
p250
aS'34E0066'
p251
aS'34E0065'
p252
aS'34E0069'
p253
aS'34E0068'
p254
aS'34E0074'
p255
aS'34E0070'
p256
aS'34E0071'
p257
aS'34E0072'
p258
aS'34E0073'
p259
aS'34E0039'
p260
aS'34E0036'
p261
aS'34E0041'
p262
aS'34E0040'
p263
aS'34E0043'
p264
aS'34E0042'
p265
aS'34E0044'
p266
aS'34E0049'
p267
asS'119'
p268
(lp269
S'1190037'
p270
aS'1190030'
p271
aS'1190038'
p272
aS'1190029'
p273
asS'716'
p274
(lp275
S'7160001'
p276
aS'7160002'
p277
asS'714'
p278
(lp279
S'7140004'
p280
aS'7140002'
p281
aS'7140001'
p282
aS'7140006'
p283
aS'7140005'
p284
aS'7140003'
p285
asS'713'
p286
(lp287
S'7130013'
p288
aS'7130012'
p289
aS'7130011'
p290
aS'7130010'
p291
asS'712'
p292
(lp293
S'7120031'
p294
aS'7120029'
p295
aS'7120030'
p296
aS'7120032'
p297
asS'710'
p298
(lp299
S'7100003'
p300
aS'7100002'
p301
aS'7100001'
p302
aS'7100007'
p303
aS'7100005'
p304
aS'7100008'
p305
aS'7100006'
p306
aS'7100016'
p307
asS'120'
p308
(lp309
S'1200066'
p310
aS'1200064'
p311
aS'1200065'
p312
aS'1200062'
p313
aS'1200067'
p314
aS'1200071'
p315
aS'1200070'
p316
asS'121'
p317
(lp318
S'1210037'
p319
aS'1210028'
p320
aS'1210027'
p321
aS'1210026'
p322
aS'1210025'
p323
asS'114'
p324
(lp325
S'1140014'
p326
aS'1140015'
p327
asS'9701'
p328
(lp329
S'97010026'
p330
asS'9702'
p331
(lp332
S'97020015'
p333
asS'9703'
p334
(lp335
S'97030019'
p336
asS'84'
p337
(lp338
S'840026'
p339
aS'840027'
p340
aS'840029'
p341
aS'840028'
p342
asS'59'
p343
(lp344
S'590020'
p345
aS'590019'
p346
aS'590018'
p347
aS'590017'
p348
asS'55'
p349
(lp350
S'550026'
p351
aS'550024'
p352
aS'550039'
p353
aS'550038'
p354
asS'57'
p355
(lp356
S'570070'
p357
aS'570063'
p358
aS'570058'
p359
aS'1930031'
p360
aS'1930030'
p361
aS'570090'
p362
aS'570061'
p363
aS'570062'
p364
asS'116117'
p365
(lp366
S'1160051'
p367
aS'1160052'
p368
asS'51'
p369
(lp370
S'510029'
p371
aS'510038'
p372
aS'510034'
p373
aS'510037'
p374
aS'510031'
p375
asS'50'
p376
(lp377
S'500016'
p378
aS'500015'
p379
asS'52'
p380
(lp381
S'520076'
p382
aS'520077'
p383
aS'520075'
p384
aS'520102'
p385
aS'520103'
p386
aS'520106'
p387
aS'520107'
p388
aS'520104'
p389
aS'520105'
p390
aS'520094'
p391
aS'520092'
p392
aS'520093'
p393
asS'411'
p394
(lp395
S'4110056'
p396
aS'4110057'
p397
aS'4110070'
p398
aS'4110071'
p399
asS'CR-Worcester'
p400
(lp401
S'9850002'
p402
aS'9850001'
p403
asS'708'
p404
(lp405
S'7080042'
p406
aS'7080043'
p407
aS'7080045'
p408
aS'7080041'
p409
aS'7080038'
p410
aS'7080050'
p411
asS'195'
p412
(lp413
S'1950006'
p414
aS'1950013'
p415
asS'CR-Lowell'
p416
(lp417
S'9830006'
p418
aS'9830005'
p419
asS'701'
p420
(lp421
S'7010045'
p422
aS'7010047'
p423
aS'7010046'
p424
asS'68'
p425
(lp426
S'680023'
p427
aS'680024'
p428
asS'117'
p429
(lp430
S'1170058'
p431
aS'1170057'
p432
aS'1170081'
p433
aS'1170079'
p434
aS'1170066'
p435
aS'1170067'
p436
aS'1170060'
p437
asS'116'
p438
(lp439
S'1160072'
p440
aS'1160050'
p441
aS'1160060'
p442
asS'111'
p443
(lp444
S'1110089'
p445
aS'1110074'
p446
aS'1110071'
p447
aS'1110073'
p448
aS'1110072'
p449
aS'1110096'
p450
aS'1110088'
p451
asS'110'
p452
(lp453
S'1100053'
p454
aS'1100056'
p455
aS'1100057'
p456
aS'1100054'
p457
aS'1100055'
p458
asS'112'
p459
(lp460
S'1120047'
p461
aS'1120046'
p462
aS'1120059'
p463
aS'1120060'
p464
aS'1120061'
p465
asS'Orange'
p466
(lp467
S'913_0010'
p468
aS'903_0018'
p469
aS'903_0017'
p470
asS'83'
p471
(lp472
S'830061'
p473
aS'830060'
p474
aS'830035'
p475
aS'830036'
p476
aS'830037'
p477
asS'80'
p478
(lp479
S'800053'
p480
aS'800029'
p481
asS'5'
p482
(lp483
S'050028'
p484
aS'050027'
p485
asS'86'
p486
(lp487
S'860053'
p488
aS'860052'
p489
aS'860051'
p490
asS'87'
p491
(lp492
S'870054'
p493
aS'870055'
p494
aS'870053'
p495
aS'870090'
p496
aS'870091'
p497
aS'870059'
p498
asS'Red'
p499
(lp500
S'933_0009'
p501
aS'933_0012'
p502
aS'931_0012'
p503
aS'931_0011'
p504
aS'933_0011'
p505
aS'933_0010'
p506
aS'931_0010'
p507
aS'931_0014'
p508
aS'931_0013'
p509
aS'931_0009'
p510
asS'85'
p511
(lp512
S'850026'
p513
aS'850028'
p514
asS'429'
p515
(lp516
S'4290096'
p517
aS'4290097'
p518
aS'4290109'
p519
aS'4290108'
p520
aS'4290105'
p521
aS'4290107'
p522
aS'4290110'
p523
aS'4290111'
p524
aS'4290098'
p525
aS'4290068'
p526
aS'4290102'
p527
aS'4290067'
p528
aS'4290095'
p529
aS'4290094'
p530
aS'4290093'
p531
aS'4290092'
p532
asS'428'
p533
(lp534
S'4280016'
p535
aS'4280010'
p536
aS'4280009'
p537
asS'725'
p538
(lp539
S'7250029'
p540
aS'7250028'
p541
asS'171'
p542
(lp543
S'1710011'
p544
asS'7'
p545
(lp546
S'070042'
p547
aS'070035'
p548
aS'070054'
p549
aS'070053'
p550
aS'070051'
p551
asS'170'
p552
(lp553
S'1700018'
p554
aS'1700019'
p555
aS'1700021'
p556
aS'1700022'
p557
asS'424'
p558
(lp559
S'4240027'
p560
aS'4240026'
p561
asS'426'
p562
(lp563
S'4260125'
p564
aS'4260124'
p565
aS'4260123'
p566
aS'4260095'
p567
aS'4260109'
p568
aS'4260096'
p569
aS'4260081'
p570
aS'4260080'
p571
aS'4260077'
p572
aS'4260083'
p573
aS'4260082'
p574
aS'4260108'
p575
aS'4260079'
p576
aS'4260076'
p577
asS'449'
p578
(lp579
S'4490028'
p580
aS'4490029'
p581
aS'4490026'
p582
aS'4490019'
p583
aS'4490027'
p584
asS'448'
p585
(lp586
S'4480022'
p587
aS'4480014'
p588
aS'4480023'
p589
aS'4480025'
p590
aS'4480024'
p591
asS'442'
p592
(lp593
S'4420099'
p594
aS'4420097'
p595
aS'4420070'
p596
aS'4420071'
p597
aS'4420076'
p598
aS'4420069'
p599
aS'4420104'
p600
aS'4420100'
p601
aS'4420101'
p602
aS'4420102'
p603
aS'4420073'
p604
asS'441'
p605
(lp606
S'4410079'
p607
aS'4410078'
p608
aS'4410077'
p609
aS'4410076'
p610
aS'4410081'
p611
aS'4410107'
p612
aS'4410105'
p613
aS'4410106'
p614
aS'4410108'
p615
aS'4410104'
p616
aS'4410096'
p617
asS'245'
p618
(lp619
S'2450035'
p620
aS'2450036'
p621
aS'2450038'
p622
aS'2450034'
p623
aS'2450033'
p624
aS'2450037'
p625
asS'108'
p626
(lp627
S'1080058'
p628
aS'1080073'
p629
aS'1080070'
p630
aS'1080057'
p631
aS'1080065'
p632
aS'1080066'
p633
aS'1080069'
p634
asS'109'
p635
(lp636
S'1090061'
p637
aS'1090062'
p638
aS'1090069'
p639
aS'1090070'
p640
asS'240'
p641
(lp642
S'2400053'
p643
aS'2400051'
p644
aS'2400050'
p645
aS'2400064'
p646
aS'2400057'
p647
aS'2400054'
p648
aS'2400044'
p649
aS'2400046'
p650
aS'2400048'
p651
aS'2400074'
p652
aS'2400075'
p653
aS'2400076'
p654
aS'2400077'
p655
aS'2400047'
p656
aS'2400049'
p657
asS'100'
p658
(lp659
S'1000047'
p660
aS'1000048'
p661
aS'1000035'
p662
aS'1000034'
p663
aS'1000033'
p664
aS'1000032'
p665
asS'101'
p666
(lp667
S'1010130'
p668
aS'1010131'
p669
aS'1010094'
p670
aS'1010095'
p671
aS'1010093'
p672
aS'1010078'
p673
aS'1010113'
p674
aS'1010114'
p675
aS'1010079'
p676
aS'1010081'
p677
aS'1010080'
p678
aS'1010088'
p679
asS'106'
p680
(lp681
S'1060100'
p682
aS'1060118'
p683
aS'1060116'
p684
aS'1060117'
p685
aS'1060112'
p686
aS'1060110'
p687
aS'1060111'
p688
aS'1060115'
p689
aS'1060097'
p690
aS'1060099'
p691
aS'1060098'
p692
asS'104'
p693
(lp694
S'1040034'
p695
aS'1040033'
p696
asS'105'
p697
(lp698
S'1050036'
p699
aS'1050037'
p700
asS'39'
p701
(lp702
S'1920020'
p703
aS'390048'
p704
aS'390042'
p705
aS'390043'
p706
aS'390046'
p707
aS'1920018'
p708
aS'390049'
p709
aS'390059'
p710
aS'390051'
p711
aS'390050'
p712
asS'38'
p713
(lp714
S'380043'
p715
aS'380042'
p716
aS'380044'
p717
aS'380041'
p718
aS'380045'
p719
asS'CR-Middleborough'
p720
(lp721
S'9800001'
p722
aS'9800002'
p723
asS'4050'
p724
(lp725
S'400026'
p726
aS'400033'
p727
asS'33'
p728
(lp729
S'330048'
p730
aS'330049'
p731
aS'330042'
p732
aS'330043'
p733
aS'330044'
p734
aS'330045'
p735
aS'330046'
p736
aS'330047'
p737
aS'330051'
p738
asS'32'
p739
(lp740
S'320075'
p741
aS'320076'
p742
aS'320069'
p743
aS'320068'
p744
aS'320063'
p745
aS'320067'
p746
aS'320066'
p747
aS'320065'
p748
aS'320064'
p749
asS'31'
p750
(lp751
S'310037'
p752
aS'310038'
p753
asS'30'
p754
(lp755
S'300021'
p756
aS'300020'
p757
aS'300022'
p758
aS'300019'
p759
asS'37'
p760
(lp761
S'370024'
p762
aS'370022'
p763
aS'370023'
p764
aS'370021'
p765
asS'36'
p766
(lp767
S'360056'
p768
aS'360057'
p769
aS'360054'
p770
aS'360055'
p771
aS'360053'
p772
aS'360058'
p773
aS'360059'
p774
aS'360072'
p775
aS'360103'
p776
aS'360104'
p777
aS'360105'
p778
aS'360106'
p779
aS'360064'
p780
aS'360063'
p781
asS'35'
p782
(lp783
S'350039'
p784
aS'350045'
p785
aS'350041'
p786
aS'350051'
p787
aS'350053'
p788
aS'350052'
p789
asS'34'
p790
(lp791
S'340117'
p792
aS'340119'
p793
aS'340118'
p794
aS'340122'
p795
asS'439'
p796
(lp797
S'4390023'
p798
aS'4390025'
p799
aS'4390024'
p800
aS'4390026'
p801
aS'4390037'
p802
aS'4390038'
p803
aS'4390022'
p804
aS'4390036'
p805
aS'4390035'
p806
asS'436'
p807
(lp808
S'4360071'
p809
aS'4360070'
p810
aS'4360063'
p811
aS'4360062'
p812
aS'4360049'
p813
aS'4360072'
p814
aS'4360044'
p815
aS'4360045'
p816
aS'4360046'
p817
aS'4360047'
p818
aS'4360048'
p819
asS'73'
p820
(lp821
S'730066'
p822
aS'730067'
p823
aS'730045'
p824
aS'730046'
p825
aS'730047'
p826
aS'730048'
p827
asS'434'
p828
(lp829
S'4340020'
p830
aS'4340021'
p831
asS'435'
p832
(lp833
S'4350050'
p834
aS'4350026'
p835
aS'4350029'
p836
aS'4350027'
p837
aS'4350043'
p838
aS'4350046'
p839
aS'4350048'
p840
aS'4350033'
p841
aS'4350030'
p842
aS'4350044'
p843
aS'4350042'
p844
aS'4350041'
p845
aS'4350040'
p846
aS'4350047'
p847
aS'4350049'
p848
asS'70A'
p849
(lp850
S'70A0023'
p851
aS'70A0022'
p852
aS'70A0020'
p853
aS'70A0021'
p854
asS'430'
p855
(lp856
S'4300044'
p857
aS'4300043'
p858
aS'4300049'
p859
aS'4300051'
p860
aS'4300050'
p861
aS'4300053'
p862
aS'4300052'
p863
asS'431'
p864
(lp865
S'4310006'
p866
aS'4310005'
p867
aS'4310008'
p868
asS'459'
p869
(lp870
S'4590012'
p871
aS'4590010'
p872
aS'4590011'
p873
asS'627'
p874
(lp875
S'6270025'
p876
aS'6270026'
p877
asS'450'
p878
(lp879
S'4500069'
p880
aS'4500066'
p881
aS'4500068'
p882
aS'4500067'
p883
aS'4500071'
p884
aS'4500070'
p885
asS'451'
p886
(lp887
S'4510027'
p888
aS'4510026'
p889
aS'4510029'
p890
aS'4510028'
p891
asS'455'
p892
(lp893
S'4550098'
p894
aS'4550096'
p895
aS'4550097'
p896
aS'4550094'
p897
aS'4550095'
p898
aS'4550078'
p899
aS'4550082'
p900
aS'4550081'
p901
aS'4550080'
p902
aS'4550085'
p903
aS'4550084'
p904
aS'4550087'
p905
aS'4550086'
p906
aS'4550088'
p907
aS'4550079'
p908
asS'456'
p909
(lp910
S'4560023'
p911
aS'4560024'
p912
aS'4560025'
p913
aS'4560029'
p914
aS'4560030'
p915
asS'60'
p916
(lp917
S'600031'
p918
aS'600030'
p919
aS'600032'
p920
aS'600037'
p921
aS'600041'
p922
aS'600028'
p923
aS'600029'
p924
asS'62'
p925
(lp926
S'620052'
p927
aS'620051'
p928
aS'620050'
p929
aS'620053'
p930
aS'620048'
p931
aS'620049'
p932
asS'64'
p933
(lp934
S'640039'
p935
aS'640044'
p936
aS'640045'
p937
aS'640040'
p938
aS'640043'
p939
asS'65'
p940
(lp941
S'650026'
p942
aS'650025'
p943
asS'66'
p944
(lp945
S'660059'
p946
aS'660058'
p947
aS'660055'
p948
aS'660057'
p949
aS'660052'
p950
aS'660056'
p951
asS'67'
p952
(lp953
S'670027'
p954
aS'670026'
p955
asS'Green-E'
p956
(lp957
S'880_0009'
p958
aS'882_0005'
p959
aS'882_0006'
p960
aS'880_0011'
p961
aS'880_0010'
p962
aS'880_0012'
p963
asS'69'
p964
(lp965
S'690043'
p966
aS'690042'
p967
aS'690044'
p968
aS'690069'
p969
aS'690068'
p970
asS'Green-C'
p971
(lp972
S'831_0009'
p973
aS'830_0003'
p974
aS'831_0008'
p975
aS'830_0004'
p976
asS'Green-B'
p977
(lp978
S'810_0004'
p979
aS'823_0002'
p980
aS'810_0005'
p981
aS'813_0004'
p982
aS'813_0003'
p983
aS'813_0005'
p984
asS'554'
p985
(lp986
S'5540021'
p987
aS'5540023'
p988
aS'5540022'
p989
aS'5540020'
p990
asS'504'
p991
(lp992
S'5040031'
p993
aS'5040040'
p994
aS'5040041'
p995
aS'5040039'
p996
asS'505'
p997
(lp998
S'5050023'
p999
aS'5050024'
p1000
aS'5050022'
p1001
aS'5050021'
p1002
asS'502'
p1003
(lp1004
S'5020017'
p1005
aS'5020016'
p1006
asS'503'
p1007
(lp1008
S'5030026'
p1009
aS'5030034'
p1010
aS'5030027'
p1011
aS'5030025'
p1012
asS'501'
p1013
(lp1014
S'5010054'
p1015
aS'5010055'
p1016
aS'5010048'
p1017
aS'5010047'
p1018
aS'5010049'
p1019
asS'751'
p1020
(lp1021
S'7510011'
p1022
aS'7510010'
p1023
asS'97'
p1024
(lp1025
S'970024'
p1026
aS'970023'
p1027
asS'465'
p1028
(lp1029
S'4650018'
p1030
aS'4650014'
p1031
aS'4650011'
p1032
aS'4650017'
p1033
asS'CR-Fitchburg'
p1034
(lp1035
S'9840002'
p1036
aS'9840001'
p1037
asS'2427'
p1038
(lp1039
S'240059'
p1040
aS'240050'
p1041
asS'99'
p1042
(lp1043
S'990059'
p1044
aS'990058'
p1045
aS'990057'
p1046
aS'990056'
p1047
aS'990060'
p1048
aS'990061'
p1049
asS'214216'
p1050
(lp1051
S'2160045'
p1052
aS'2160047'
p1053
aS'2160033'
p1054
asS'91'
p1055
(lp1056
S'910023'
p1057
aS'910026'
p1058
aS'910040'
p1059
aS'910041'
p1060
asS'90'
p1061
(lp1062
S'900030'
p1063
aS'900026'
p1064
aS'900025'
p1065
asS'93'
p1066
(lp1067
S'930045'
p1068
aS'930046'
p1069
aS'930047'
p1070
aS'930044'
p1071
aS'930048'
p1072
aS'930049'
p1073
aS'930059'
p1074
aS'930058'
p1075
aS'930060'
p1076
asS'92'
p1077
(lp1078
S'920069'
p1079
aS'920050'
p1080
aS'920051'
p1081
aS'920052'
p1082
aS'920046'
p1083
aS'920045'
p1084
aS'920048'
p1085
aS'920047'
p1086
asS'95'
p1087
(lp1088
S'950045'
p1089
aS'950060'
p1090
aS'950068'
p1091
aS'950044'
p1092
aS'950058'
p1093
aS'950057'
p1094
asS'222'
p1095
(lp1096
S'2220035'
p1097
aS'2220038'
p1098
aS'2220039'
p1099
aS'2220034'
p1100
aS'2220036'
p1101
aS'2220037'
p1102
asS'221'
p1103
(lp1104
S'2210017'
p1105
aS'2210018'
p1106
asS'220'
p1107
(lp1108
S'2200030'
p1109
aS'2200025'
p1110
aS'2200024'
p1111
aS'2200027'
p1112
aS'2200026'
p1113
aS'2200029'
p1114
aS'2200028'
p1115
asS'11'
p1116
(lp1117
S'110038'
p1118
aS'110031'
p1119
aS'110033'
p1120
aS'110037'
p1121
aS'110044'
p1122
asS'10'
p1123
(lp1124
S'100069'
p1125
aS'100049'
p1126
aS'100048'
p1127
aS'100041'
p1128
aS'100045'
p1129
aS'100044'
p1130
aS'100047'
p1131
aS'100046'
p1132
aS'100070'
p1133
aS'100071'
p1134
asS'15'
p1135
(lp1136
S'150079'
p1137
aS'150078'
p1138
aS'150077'
p1139
aS'150081'
p1140
aS'150082'
p1141
aS'150083'
p1142
aS'1910023'
p1143
aS'1910029'
p1144
aS'150080'
p1145
aS'150084'
p1146
aS'150085'
p1147
aS'150086'
p1148
aS'150087'
p1149
asS'14'
p1150
(lp1151
S'140058'
p1152
aS'140056'
p1153
aS'140057'
p1154
aS'140055'
p1155
aS'140043'
p1156
aS'140040'
p1157
asS'17'
p1158
(lp1159
S'170037'
p1160
aS'170036'
p1161
asS'16'
p1162
(lp1163
S'160094'
p1164
aS'160095'
p1165
aS'160096'
p1166
aS'160093'
p1167
aS'160071'
p1168
aS'160086'
p1169
aS'160065'
p1170
aS'160067'
p1171
aS'160069'
p1172
aS'160068'
p1173
asS'19'
p1174
(lp1175
S'190079'
p1176
aS'190078'
p1177
aS'190075'
p1178
aS'190074'
p1179
aS'190077'
p1180
aS'190073'
p1181
aS'190080'
p1182
aS'190081'
p1183
asS'18'
p1184
(lp1185
S'180026'
p1186
aS'180025'
p1187
asS'88'
p1188
(lp1189
S'880047'
p1190
aS'880087'
p1191
aS'880086'
p1192
aS'880053'
p1193
aS'880056'
p1194
aS'880048'
p1195
asS'89'
p1196
(lp1197
S'890040'
p1198
aS'890030'
p1199
aS'890031'
p1200
aS'890058'
p1201
aS'890057'
p1202
aS'890051'
p1203
aS'890052'
p1204
aS'890053'
p1205
asS'57A'
p1206
(lp1207
S'57A0020'
p1208
aS'57A0019'
p1209
asS'741'
p1210
(lp1211
S'7410009'
p1212
aS'7410008'
p1213
aS'7410010'
p1214
aS'7410017'
p1215
aS'7410018'
p1216
aS'7410007'
p1217
asS'742'
p1218
(lp1219
S'7420014'
p1220
aS'7420020'
p1221
aS'7420013'
p1222
aS'7420021'
p1223
aS'7420018'
p1224
aS'7420019'
p1225
aS'7420012'
p1226
aS'7420015'
p1227
aS'7420017'
p1228
aS'7420016'
p1229
asS'558'
p1230
(lp1231
S'5580032'
p1232
aS'5580033'
p1233
aS'5580030'
p1234
aS'5580031'
p1235
asS'746'
p1236
(lp1237
S'7460006'
p1238
aS'7460007'
p1239
asS'747'
p1240
(lp1241
S'7470019'
p1242
aS'7470015'
p1243
asS'749'
p1244
(lp1245
S'7490010'
p1246
aS'7490011'
p1247
asS'556'
p1248
(lp1249
S'5560021'
p1250
aS'5560020'
p1251
aS'5560013'
p1252
aS'5560019'
p1253
asS'608'
p1254
(lp1255
S'6080005'
p1256
asS'553'
p1257
(lp1258
S'5530027'
p1259
aS'5530037'
p1260
aS'5530044'
p1261
aS'5530046'
p1262
aS'5530030'
p1263
aS'5530045'
p1264
asS'238'
p1265
(lp1266
S'2380055'
p1267
aS'2380054'
p1268
aS'2380053'
p1269
aS'2380052'
p1270
aS'2380048'
p1271
aS'2380049'
p1272
aS'2380047'
p1273
aS'2380056'
p1274
aS'2380050'
p1275
aS'2380051'
p1276
asS'3738'
p1277
(lp1278
S'380050'
p1279
aS'380051'
p1280
asS'236'
p1281
(lp1282
S'2360015'
p1283
aS'2360014'
p1284
aS'2360013'
p1285
aS'2360012'
p1286
asS'230'
p1287
(lp1288
S'2300017'
p1289
aS'2300016'
p1290
aS'2300015'
p1291
aS'2300018'
p1292
asS'3233'
p1293
(lp1294
S'320079'
p1295
aS'320080'
p1296
asS'47'
p1297
(lp1298
S'470069'
p1299
aS'470054'
p1300
aS'470055'
p1301
aS'470046'
p1302
asS'44'
p1303
(lp1304
S'440064'
p1305
aS'440065'
p1306
aS'440060'
p1307
aS'440062'
p1308
aS'440063'
p1309
asS'45'
p1310
(lp1311
S'450050'
p1312
aS'450051'
p1313
aS'450052'
p1314
aS'450053'
p1315
aS'450048'
p1316
aS'450066'
p1317
aS'450049'
p1318
asS'42'
p1319
(lp1320
S'420028'
p1321
aS'420029'
p1322
asS'43'
p1323
(lp1324
S'430029'
p1325
aS'430028'
p1326
asS'40'
p1327
(lp1328
S'400032'
p1329
aS'400031'
p1330
aS'400035'
p1331
aS'400034'
p1332
asS'41'
p1333
(lp1334
S'410045'
p1335
aS'410044'
p1336
aS'410043'
p1337
asS'1'
p1338
(lp1339
S'010058'
p1340
aS'010038'
p1341
asS'326'
p1342
(lp1343
S'3260032'
p1344
aS'3260028'
p1345
aS'3260029'
p1346
aS'3260045'
p1347
aS'3260046'
p1348
asS'CR-Haverhill'
p1349
(lp1350
S'9820004'
p1351
aS'9820001'
p1352
aS'9820002'
p1353
aS'9820003'
p1354
asS'325'
p1355
(lp1356
S'3250038'
p1357
aS'3250034'
p1358
aS'3250035'
p1359
aS'3250037'
p1360
aS'3250036'
p1361
asS'9'
p1362
(lp1363
S'090078'
p1364
aS'090079'
p1365
aS'090060'
p1366
aS'090057'
p1367
aS'090059'
p1368
aS'090056'
p1369
asS'CR-Kingston'
p1370
(lp1371
S'9790008'
p1372
aS'9790001'
p1373
aS'9790005'
p1374
aS'9790003'
p1375
aS'9790002'
p1376
aS'9790006'
p1377
aS'9790007'
p1378
aS'9790004'
p1379
asS'201'
p1380
(lp1381
S'2010030'
p1382
aS'2010032'
p1383
aS'2010039'
p1384
aS'2010038'
p1385
aS'2010022'
p1386
aS'2010023'
p1387
aS'2010040'
p1388
aS'2010041'
p1389
aS'2010042'
p1390
asS'202'
p1391
(lp1392
S'2020024'
p1393
aS'2020027'
p1394
aS'2020032'
p1395
aS'2020043'
p1396
aS'2020042'
p1397
aS'2020044'
p1398
aS'2020041'
p1399
aS'2020040'
p1400
aS'2020033'
p1401
aS'2020030'
p1402
asS'77'
p1403
(lp1404
S'770089'
p1405
aS'770060'
p1406
aS'770090'
p1407
aS'770057'
p1408
asS'76'
p1409
(lp1410
S'760052'
p1411
aS'760053'
p1412
aS'760050'
p1413
aS'760051'
p1414
aS'760054'
p1415
aS'760049'
p1416
asS'75'
p1417
(lp1418
S'750017'
p1419
aS'750016'
p1420
asS'74'
p1421
(lp1422
S'740021'
p1423
aS'740020'
p1424
asS'CR-Needham'
p1425
(lp1426
S'9860001'
p1427
aS'9860002'
p1428
asS'72'
p1429
(lp1430
S'720027'
p1431
aS'720026'
p1432
aS'720025'
p1433
asS'71'
p1434
(lp1435
S'710031'
p1436
aS'710030'
p1437
aS'710036'
p1438
aS'710035'
p1439
aS'710034'
p1440
aS'710032'
p1441
asS'70'
p1442
(lp1443
S'700072'
p1444
aS'700078'
p1445
aS'700075'
p1446
aS'700089'
p1447
aS'700088'
p1448
aS'700080'
p1449
aS'700087'
p1450
aS'700086'
p1451
aS'700085'
p1452
aS'700051'
p1453
aS'700052'
p1454
aS'700053'
p1455
aS'700050'
p1456
aS'700054'
p1457
aS'700090'
p1458
aS'700091'
p1459
aS'700092'
p1460
asS'79'
p1461
(lp1462
S'790036'
p1463
aS'790035'
p1464
aS'790034'
p1465
asS'78'
p1466
(lp1467
S'780065'
p1468
aS'780064'
p1469
aS'780063'
p1470
aS'780041'
p1471
asS'CR-Greenbush'
p1472
(lp1473
S'9900001'
p1474
aS'9900002'
p1475
asS'8993'
p1476
(lp1477
S'1940030'
p1478
aS'1940034'
p1479
asS'354'
p1480
(lp1481
S'3540048'
p1482
aS'3540047'
p1483
aS'3540036'
p1484
aS'3540037'
p1485
aS'3540034'
p1486
aS'3540035'
p1487
aS'3540033'
p1488
asS'352'
p1489
(lp1490
S'3520035'
p1491
aS'3520036'
p1492
asS'351'
p1493
(lp1494
S'3510066'
p1495
aS'3510067'
p1496
asS'350'
p1497
(lp1498
S'3500061'
p1499
aS'3500081'
p1500
aS'3500069'
p1501
aS'3500080'
p1502
aS'3500084'
p1503
aS'3500083'
p1504
aS'3500082'
p1505
aS'3500079'
p1506
asS'CR-Newburyport'
p1507
(lp1508
S'9810007'
p1509
aS'9810006'
p1510
aS'9810001'
p1511
aS'9810002'
p1512
asS'CR-Fairmount'
p1513
(lp1514
S'9870001'
p1515
aS'9870002'
p1516
as.