(dp0
S'Blue'
p1
S'Blue Line'
p2
sS'216'
p3
S'216'
p4
sS'214'
p5
S'214'
p6
sS'215'
p7
S'215'
p8
sS'212'
p9
S'212'
p10
sS'210'
p11
S'210'
p12
sS'211'
p13
S'211'
p14
sS'132'
p15
S'132'
p16
sS'131'
p17
S'131'
p18
sS'137'
p19
S'137'
p20
sS'136'
p21
S'136'
p22
sS'134'
p23
S'134'
p24
sS'CR-Providence'
p25
S'Providence/Stoughton Line'
p26
sS'225'
p27
S'225'
p28
sS'441442'
p29
S'441/442'
p30
sS'24'
p31
S'24'
p32
sS'26'
p33
S'26'
p34
sS'27'
p35
S'27'
p36
sS'21'
p37
S'21'
p38
sS'22'
p39
S'22'
p40
sS'23'
p41
S'23'
p42
sS'Mattapan'
p43
S'Mattapan Trolley'
p44
sS'28'
p45
S'28'
p46
sS'29'
p47
S'29'
p48
sS'222'
p49
S'222'
p50
sS'CR-Franklin'
p51
S'Franklin Line'
p52
sS'4'
p53
g53
sS'8'
p54
g54
sS'220'
p55
S'220'
p56
sS'CR-Haverhill'
p57
S'Haverhill Line'
p58
sS'34E'
p59
S'34E'
p60
sS'119'
p61
S'119'
p62
sS'Logan-22'
p63
S'Shuttle'
p64
sS'716'
p65
S'716'
p66
sS'714'
p67
S'714'
p68
sS'713'
p69
S'713'
p70
sS'712'
p71
S'712'
p72
sS'710'
p73
S'710'
p74
sS'120'
p75
S'120'
p76
sS'121'
p77
S'121'
p78
sS'9701'
p79
S'9701'
p80
sS'9702'
p81
S'9702'
p82
sS'9703'
p83
S'9703'
p84
sS'436'
p85
S'436'
p86
sS'59'
p87
S'59'
p88
sS'55'
p89
S'55'
p90
sS'57'
p91
S'57'
p92
sS'116117'
p93
S'116/117'
p94
sS'51'
p95
S'51'
p96
sS'50'
p97
S'50'
p98
sS'52'
p99
S'52'
p100
sS'411'
p101
S'411'
p102
sS'Logan-66'
p103
S'Shuttle'
p104
sS'CR-Worcester'
p105
S'Framingham/Worcester Line'
p106
sS'708'
p107
S'CT3'
p108
sS'195'
p109
S'195'
p110
sS'CR-Lowell'
p111
S'Lowell Line'
p112
sS'701'
p113
S'CT1'
p114
sS'68'
p115
S'68'
p116
sS'88'
p117
S'88'
p118
sS'89'
p119
S'89'
p120
sS'111'
p121
S'111'
p122
sS'110'
p123
S'110'
p124
sS'69'
p125
S'69'
p126
sS'Orange'
p127
S'Orange Line'
p128
sS'83'
p129
S'83'
p130
sS'80'
p131
S'80'
p132
sS'86'
p133
S'86'
p134
sS'87'
p135
S'87'
p136
sS'Red'
p137
S'Red Line'
p138
sS'85'
p139
S'85'
p140
sS'429'
p141
S'429'
p142
sS'428'
p143
S'428'
p144
sS'171'
p145
S'171'
p146
sS'7'
p147
g147
sS'170'
p148
S'170'
p149
sS'424'
p150
S'424'
p151
sS'426'
p152
S'426'
p153
sS'449'
p154
S'449'
p155
sS'448'
p156
S'448'
p157
sS'442'
p158
S'442'
p159
sS'441'
p160
S'441'
p161
sS'245'
p162
S'245'
p163
sS'108'
p164
S'108'
p165
sS'109'
p166
S'109'
p167
sS'240'
p168
S'240'
p169
sS'100'
p170
S'100'
p171
sS'101'
p172
S'101'
p173
sS'106'
p174
S'106'
p175
sS'Logan-55'
p176
S'Shuttle'
p177
sS'104'
p178
S'104'
p179
sS'105'
p180
S'105'
p181
sS'39'
p182
S'39'
p183
sS'38'
p184
S'38'
p185
sS'CR-Middleborough'
p186
S'Middleborough/Lakeville Line'
p187
sS'4050'
p188
S'40/50'
p189
sS'33'
p190
S'33'
p191
sS'32'
p192
S'32'
p193
sS'31'
p194
S'31'
p195
sS'30'
p196
S'30'
p197
sS'37'
p198
S'37'
p199
sS'36'
p200
S'36'
p201
sS'35'
p202
S'35'
p203
sS'34'
p204
S'34'
p205
sS'439'
p206
S'439'
p207
sS'114'
p208
S'114'
p209
sS'CR-Needham'
p210
S'Needham Line'
p211
sS'434'
p212
S'434'
p213
sS'435'
p214
S'435'
p215
sS'70A'
p216
S'70A'
p217
sS'430'
p218
S'430'
p219
sS'431'
p220
S'431'
p221
sS'459'
p222
S'459'
p223
sS'627'
p224
S'62/76'
p225
sS'450'
p226
S'450'
p227
sS'451'
p228
S'451'
p229
sS'455'
p230
S'455'
p231
sS'456'
p232
S'456'
p233
sS'60'
p234
S'60'
p235
sS'62'
p236
S'62'
p237
sS'64'
p238
S'64'
p239
sS'65'
p240
S'65'
p241
sS'66'
p242
S'66'
p243
sS'67'
p244
S'67'
p245
sS'Green-E'
p246
S'E'
p247
sS'Green-D'
p248
S'D'
p249
sS'Green-C'
p250
S'C'
p251
sS'Green-B'
p252
S'B'
p253
sS'116'
p254
S'116'
p255
sS'554'
p256
S'554'
p257
sS'Logan-44'
p258
S'Shuttle'
p259
sS'504'
p260
S'504'
p261
sS'505'
p262
S'505'
p263
sS'502'
p264
S'502'
p265
sS'503'
p266
S'503'
p267
sS'501'
p268
S'501'
p269
sS'751'
p270
S'SL4'
p271
sS'556'
p272
S'556'
p273
sS'221'
p274
S'221'
p275
sS'465'
p276
S'465'
p277
sS'CR-Fitchburg'
p278
S'Fitchburg Line'
p279
sS'2427'
p280
S'24/27'
p281
sS'99'
p282
S'99'
p283
sS'214216'
p284
S'214/216'
p285
sS'91'
p286
S'91'
p287
sS'90'
p288
S'90'
p289
sS'93'
p290
S'93'
p291
sS'92'
p292
S'92'
p293
sS'95'
p294
S'95'
p295
sS'94'
p296
S'94'
p297
sS'97'
p298
S'97'
p299
sS'96'
p300
S'96'
p301
sS'11'
p302
S'11'
p303
sS'10'
p304
S'10'
p305
sS'15'
p306
S'15'
p307
sS'14'
p308
S'14'
p309
sS'17'
p310
S'17'
p311
sS'16'
p312
S'16'
p313
sS'19'
p314
S'19'
p315
sS'18'
p316
S'18'
p317
sS'117'
p318
S'117'
p319
sS'725'
p320
S'72/75'
p321
sS'57A'
p322
S'57A'
p323
sS'741'
p324
S'SL1'
p325
sS'742'
p326
S'SL2'
p327
sS'558'
p328
S'558'
p329
sS'746'
p330
S'SL Waterfront'
p331
sS'747'
p332
S'CT2'
p333
sS'749'
p334
S'SL5'
p335
sS'112'
p336
S'112'
p337
sS'608'
p338
S'608'
p339
sS'553'
p340
S'553'
p341
sS'238'
p342
S'238'
p343
sS'3738'
p344
S'37/38'
p345
sS'Boat-F3'
p346
S'Hull Ferry'
p347
sS'236'
p348
S'236'
p349
sS'Boat-F1'
p350
S'Hingham Ferry'
p351
sS'230'
p352
S'230'
p353
sS'Boat-F4'
p354
S'Charlestown Ferry'
p355
sS'3233'
p356
S'32/33'
p357
sS'47'
p358
S'47'
p359
sS'44'
p360
S'44'
p361
sS'45'
p362
S'45'
p363
sS'42'
p364
S'42'
p365
sS'43'
p366
S'43'
p367
sS'40'
p368
S'40'
p369
sS'41'
p370
S'41'
p371
sS'1'
p372
g372
sS'5'
p373
g373
sS'84'
p374
S'84'
p375
sS'325'
p376
S'325'
p377
sS'9'
p378
g378
sS'CR-Kingston'
p379
S'Kingston/Plymouth Line'
p380
sS'201'
p381
S'201'
p382
sS'202'
p383
S'202'
p384
sS'217'
p385
S'217'
p386
sS'77'
p387
S'77'
p388
sS'76'
p389
S'76'
p390
sS'75'
p391
S'75'
p392
sS'74'
p393
S'74'
p394
sS'73'
p395
S'73'
p396
sS'72'
p397
S'72'
p398
sS'71'
p399
S'71'
p400
sS'70'
p401
S'70'
p402
sS'Logan-33'
p403
S'Shuttle'
p404
sS'79'
p405
S'79'
p406
sS'78'
p407
S'78'
p408
sS'CR-Greenbush'
p409
S'Greenbush Line'
p410
sS'8993'
p411
S'89/93'
p412
sS'354'
p413
S'354'
p414
sS'352'
p415
S'352'
p416
sS'351'
p417
S'351'
p418
sS'350'
p419
S'350'
p420
sS'CR-Newburyport'
p421
S'Newburyport/Rockport Line'
p422
sS'326'
p423
S'326'
p424
sS'CR-Fairmount'
p425
S'Fairmount Line'
p426
s.