(dp0
S'1160072'
p1
S'116'
p2
sS''
p3
S'Logan-22'
p4
sS'2200030'
p5
S'220'
p6
sS'420028'
p7
S'42'
p8
sS'420029'
p9
S'42'
p10
sS'5020017'
p11
S'502'
p12
sS'290060'
p13
S'29'
p14
sS'230068'
p15
S'23'
p16
sS'690043'
p17
S'69'
p18
sS'690042'
p19
S'69'
p20
sS'700072'
p21
S'70'
p22
sS'690044'
p23
S'69'
p24
sS'9820004'
p25
S'CR-Haverhill'
p26
sS'070051'
p27
S'7'
p28
sS'9820001'
p29
S'CR-Haverhill'
p30
sS'1010131'
p31
S'101'
p32
sS'1010130'
p33
S'101'
p34
sS'2400053'
p35
S'240'
p36
sS'2400050'
p37
S'240'
p38
sS'2400051'
p39
S'240'
p40
sS'450050'
p41
S'45'
p42
sS'2400057'
p43
S'240'
p44
sS'2400054'
p45
S'240'
p46
sS'450053'
p47
S'45'
p48
sS'7490010'
p49
S'749'
p50
sS'7490011'
p51
S'749'
p52
sS'670026'
p53
S'67'
p54
sS'3540048'
p55
S'354'
p56
sS'1310039'
p57
S'131'
p58
sS'1310038'
p59
S'131'
p60
sS'1310037'
p61
S'131'
p62
sS'1310036'
p63
S'131'
p64
sS'1310035'
p65
S'131'
p66
sS'1310034'
p67
S'131'
p68
sS'1310033'
p69
S'131'
p70
sS'740020'
p71
S'74'
p72
sS'34E0050'
p73
S'34E'
p74
sS'380044'
p75
S'38'
p76
sS'150079'
p77
S'15'
p78
sS'150078'
p79
S'15'
p80
sS'7100008'
p81
S'710'
p82
sS'57A0020'
p83
S'57A'
p84
sS'7100003'
p85
S'710'
p86
sS'7100002'
p87
S'710'
p88
sS'7100001'
p89
S'710'
p90
sS'7100007'
p91
S'710'
p92
sS'5540021'
p93
S'554'
p94
sS'150077'
p95
S'15'
p96
sS'852_0014'
p97
S'Green-D'
p98
sS'4410079'
p99
S'441'
p100
sS'4410078'
p101
S'441'
p102
sS'9860001'
p103
S'CR-Needham'
p104
sS'933_0009'
p105
S'Red'
p106
sS'4410077'
p107
S'441'
p108
sS'4410076'
p109
S'441'
p110
sS'933_0012'
p111
S'Red'
p112
sS'1080058'
p113
S'108'
p114
sS'870055'
p115
S'87'
p116
sS'3540047'
p117
S'354'
p118
sS'1080057'
p119
S'108'
p120
sS'890040'
p121
S'89'
p122
sS'9790008'
p123
S'CR-Kingston'
p124
sS'4260125'
p125
S'426'
p126
sS'7510011'
p127
S'751'
p128
sS'9880003'
p129
S'CR-Franklin'
p130
sS'700075'
p131
S'70'
p132
sS'4410081'
p133
S'441'
p134
sS'3540036'
p135
S'354'
p136
sS'3540037'
p137
S'354'
p138
sS'3540034'
p139
S'354'
p140
sS'3540035'
p141
S'354'
p142
sS'3540033'
p143
S'354'
p144
sS'5560021'
p145
S'556'
p146
sS'5560020'
p147
S'556'
p148
sS'2100042'
p149
S'210'
p150
sS'2100043'
p151
S'210'
p152
sS'880_0009'
p153
S'Green-E'
p154
sS'2100041'
p155
S'210'
p156
sS'4410107'
p157
S'441'
p158
sS'2010030'
p159
S'201'
p160
sS'4410105'
p161
S'441'
p162
sS'2010032'
p163
S'201'
p164
sS'4650018'
p165
S'465'
p166
sS'2010039'
p167
S'201'
p168
sS'2010038'
p169
S'201'
p170
sS'2380055'
p171
S'238'
p172
sS'2380054'
p173
S'238'
p174
sS'2380053'
p175
S'238'
p176
sS'2380052'
p177
S'238'
p178
sS'2380051'
p179
S'238'
p180
sS'2380050'
p181
S'238'
p182
sS'920069'
p183
S'92'
p184
sS'5010054'
p185
S'501'
p186
sS'9790001'
p187
S'CR-Kingston'
p188
sS'4490028'
p189
S'449'
p190
sS'4490029'
p191
S'449'
p192
sS'5010055'
p193
S'501'
p194
sS'4490026'
p195
S'449'
p196
sS'4490027'
p197
S'449'
p198
sS'7160001'
p199
S'716'
p200
sS'9870001'
p201
S'CR-Fairmount'
p202
sS'3260032'
p203
S'326'
p204
sS'090078'
p205
S'9'
p206
sS'090079'
p207
g206
sS'700078'
p208
S'70'
p209
sS'7140006'
p210
S'714'
p211
sS'9820003'
p212
S'CR-Haverhill'
p213
sS'4360071'
p214
S'436'
p215
sS'4360070'
p216
S'436'
p217
sS'3520036'
p218
S'352'
p219
sS'4360072'
p220
S'436'
p221
sS'9810007'
p222
S'CR-Newburyport'
p223
sS'930049'
p224
S'93'
p225
sS'7410007'
p226
S'741'
p227
sS'1370024'
p228
S'137'
p229
sS'7140002'
p230
S'714'
p231
sS'1200062'
p232
S'120'
p233
sS'360057'
p234
S'36'
p235
sS'2250057'
p236
S'225'
p237
sS'2250056'
p238
S'225'
p239
sS'2250051'
p240
S'225'
p241
sS'1200067'
p242
S'120'
p243
sS'1200064'
p244
S'120'
p245
sS'1200065'
p246
S'120'
p247
sS'640040'
p248
S'64'
p249
sS'360058'
p250
S'36'
p251
sS'320079'
p252
S'3233'
p253
sS'9880006'
p254
S'CR-Franklin'
p255
sS'4390026'
p256
S'439'
p257
sS'450052'
p258
S'45'
p259
sS'620051'
p260
S'62'
p261
sS'640043'
p262
S'64'
p263
sS'070042'
p264
g28
sS'830061'
p265
S'83'
p266
sS'4390023'
p267
S'439'
p268
sS'320075'
p269
S'32'
p270
sS'7080042'
p271
S'708'
p272
sS'920050'
p273
S'92'
p274
sS'34E0068'
p275
S'34E'
p276
sS'640039'
p277
S'64'
p278
sS'931_0012'
p279
S'Red'
p280
sS'931_0011'
p281
S'Red'
p282
sS'920051'
p283
S'92'
p284
sS'1060100'
p285
S'106'
p286
sS'1010078'
p287
S'101'
p288
sS'2300018'
p289
S'230'
p290
sS'620050'
p291
S'62'
p292
sS'870053'
p293
S'87'
p294
sS'770060'
p295
S'77'
p296
sS'160094'
p297
S'16'
p298
sS'160095'
p299
S'16'
p300
sS'160096'
p301
S'16'
p302
sS'2300017'
p303
S'230'
p304
sS'2300016'
p305
S'230'
p306
sS'2300015'
p307
S'230'
p308
sS'160093'
p309
S'16'
p310
sS'2020024'
p311
S'202'
p312
sS'1360044'
p313
S'136'
p314
sS'470069'
p315
S'47'
p316
sS'1360041'
p317
S'136'
p318
sS'1360043'
p319
S'136'
p320
sS'1360042'
p321
S'136'
p322
sS'860053'
p323
S'86'
p324
sS'860052'
p325
S'86'
p326
sS'520107'
p327
S'52'
p328
sS'1360049'
p329
S'136'
p330
sS'4550098'
p331
S'455'
p332
sS'4550096'
p333
S'455'
p334
sS'4550097'
p335
S'455'
p336
sS'960042'
p337
S'96'
p338
sS'4550095'
p339
S'455'
p340
sS'2250052'
p341
S'225'
p342
sS'9890003'
p343
S'CR-Providence'
p344
sS'620052'
p345
S'62'
p346
sS'920047'
p347
S'92'
p348
sS'730045'
p349
S'73'
p350
sS'1710011'
p351
S'171'
p352
sS'380043'
p353
S'38'
p354
sS'4550078'
p355
S'455'
p356
sS'913_0010'
p357
S'Orange'
p358
sS'1340119'
p359
S'134'
p360
sS'1340118'
p361
S'134'
p362
sS'380042'
p363
S'38'
p364
sS'7010045'
p365
S'701'
p366
sS'7010047'
p367
S'701'
p368
sS'7010046'
p369
S'701'
p370
sS'9810006'
p371
S'CR-Newburyport'
p372
sS'34E0054'
p373
S'34E'
p374
sS'590020'
p375
S'59'
p376
sS'5540023'
p377
S'554'
p378
sS'5540022'
p379
S'554'
p380
sS'4300044'
p381
S'430'
p382
sS'5540020'
p383
S'554'
p384
sS'4300043'
p385
S'430'
p386
sS'140058'
p387
S'14'
p388
sS'140056'
p389
S'14'
p390
sS'140057'
p391
S'14'
p392
sS'140055'
p393
S'14'
p394
sS'831_0009'
p395
S'Green-C'
p396
sS'4300049'
p397
S'430'
p398
sS'34E0067'
p399
S'34E'
p400
sS'34E0066'
p401
S'34E'
p402
sS'34E0065'
p403
S'34E'
p404
sS'948_0003'
p405
S'Blue'
p406
sS'1920020'
p407
S'39'
p408
sS'4390025'
p409
S'439'
p410
sS'4390024'
p411
S'439'
p412
sS'4420099'
p413
S'442'
p414
sS'34E0069'
p415
S'34E'
p416
sS'2400064'
p417
S'240'
p418
sS'7120031'
p419
S'712'
p420
sS'9830006'
p421
S'CR-Lowell'
p422
sS'1050036'
p423
S'105'
p424
sS'2210018'
p425
S'221'
p426
sS'2020027'
p427
S'202'
p428
sS'600031'
p429
S'60'
p430
sS'600030'
p431
S'60'
p432
sS'2210017'
p433
S'221'
p434
sS'600032'
p435
S'60'
p436
sS'600037'
p437
S'60'
p438
sS'660056'
p439
S'66'
p440
sS'4290097'
p441
S'429'
p442
sS'4590012'
p443
S'459'
p444
sS'080069'
p445
S'8'
p446
sS'4280016'
p447
S'428'
p448
sS'210036'
p449
S'21'
p450
sS'570070'
p451
S'57'
p452
sS'851_0009'
p453
S'Green-D'
p454
sS'851_0008'
p455
S'Green-D'
p456
sS'1010094'
p457
S'101'
p458
sS'1010095'
p459
S'101'
p460
sS'9800001'
p461
S'CR-Middleborough'
p462
sS'1010093'
p463
S'101'
p464
sS'1120047'
p465
S'112'
p466
sS'1120046'
p467
S'112'
p468
sS'760050'
p469
S'76'
p470
sS'760051'
p471
S'76'
p472
sS'760054'
p473
S'76'
p474
sS'830060'
p475
S'83'
p476
sS'380045'
p477
S'38'
p478
sS'4550082'
p479
S'455'
p480
sS'830_0003'
p481
S'Green-C'
p482
sS'4260124'
p483
S'426'
p484
sS'4350050'
p485
S'435'
p486
sS'5040031'
p487
S'504'
p488
sS'7080045'
p489
S'708'
p490
sS'7080041'
p491
S'708'
p492
sS'270016'
p493
S'27'
p494
sS'7080043'
p495
S'708'
p496
sS'330048'
p497
S'33'
p498
sS'330049'
p499
S'33'
p500
sS'240042'
p501
S'24'
p502
sS'240043'
p503
S'24'
p504
sS'240044'
p505
S'24'
p506
sS'240045'
p507
S'24'
p508
sS'090060'
p509
g206
sS'330042'
p510
S'33'
p511
sS'330043'
p512
S'33'
p513
sS'330044'
p514
S'33'
p515
sS'330045'
p516
S'33'
p517
sS'330046'
p518
S'33'
p519
sS'330047'
p520
S'33'
p521
sS'2140029'
p522
S'214'
p523
sS'160071'
p524
S'16'
p525
sS'760052'
p526
S'76'
p527
sS'5040040'
p528
S'504'
p529
sS'4560023'
p530
S'456'
p531
sS'4560024'
p532
S'456'
p533
sS'4560025'
p534
S'456'
p535
sS'760053'
p536
S'76'
p537
sS'9840002'
p538
S'CR-Fitchburg'
p539
sS'4560029'
p540
S'456'
p541
sS'2170054'
p542
S'217'
p543
sS'9840001'
p544
S'CR-Fitchburg'
p545
sS'2170052'
p546
S'217'
p547
sS'2170053'
p548
S'217'
p549
sS'2170051'
p550
S'217'
p551
sS'810_0004'
p552
S'Green-B'
p553
sS'4500069'
p554
S'450'
p555
sS'2150036'
p556
S'215'
p557
sS'2150034'
p558
S'215'
p559
sS'4500066'
p560
S'450'
p561
sS'2150033'
p562
S'215'
p563
sS'190079'
p564
S'19'
p565
sS'190078'
p566
S'19'
p567
sS'1110071'
p568
S'111'
p569
sS'190074'
p570
S'19'
p571
sS'1110073'
p572
S'111'
p573
sS'1110072'
p574
S'111'
p575
sS'1110074'
p576
S'111'
p577
sS'190073'
p578
S'19'
p579
sS'050028'
p580
S'5'
p581
sS'1950006'
p582
S'195'
p583
sS'882_0005'
p584
S'Green-E'
p585
sS'1170058'
p586
S'117'
p587
sS'882_0006'
p588
S'Green-E'
p589
sS'1170057'
p590
S'117'
p591
sS'050027'
p592
g581
sS'7420013'
p593
S'742'
p594
sS'700089'
p595
S'70'
p596
sS'700088'
p597
S'70'
p598
sS'300021'
p599
S'30'
p600
sS'300020'
p601
S'30'
p602
sS'300022'
p603
S'30'
p604
sS'7130013'
p605
S'713'
p606
sS'7130012'
p607
S'713'
p608
sS'7130011'
p609
S'713'
p610
sS'700080'
p611
S'70'
p612
sS'700087'
p613
S'70'
p614
sS'700086'
p615
S'70'
p616
sS'700085'
p617
S'70'
p618
sS'800053'
p619
S'80'
p620
sS'97010026'
p621
S'9701'
p622
sS'823_0002'
p623
S'Green-B'
p624
sS'660059'
p625
S'66'
p626
sS'660058'
p627
S'66'
p628
sS'470054'
p629
S'47'
p630
sS'470055'
p631
S'47'
p632
sS'660055'
p633
S'66'
p634
sS'450049'
p635
S'45'
p636
sS'450048'
p637
S'45'
p638
sS'4280010'
p639
S'428'
p640
sS'660052'
p641
S'66'
p642
sS'680023'
p643
S'68'
p644
sS'3250038'
p645
S'325'
p646
sS'4290109'
p647
S'429'
p648
sS'4290108'
p649
S'429'
p650
sS'680024'
p651
S'68'
p652
sS'946_0010'
p653
S'Blue'
p654
sS'4290105'
p655
S'429'
p656
sS'1340124'
p657
S'134'
p658
sS'4290107'
p659
S'429'
p660
sS'3250036'
p661
S'325'
p662
sS'100069'
p663
S'10'
p664
sS'3250034'
p665
S'325'
p666
sS'3250035'
p667
S'325'
p668
sS'1210028'
p669
S'121'
p670
sS'57A0019'
p671
S'57A'
p672
sS'9850002'
p673
S'CR-Worcester'
p674
sS'9850001'
p675
S'CR-Worcester'
p676
sS'7100005'
p677
S'710'
p678
sS'1210027'
p679
S'121'
p680
sS'1210026'
p681
S'121'
p682
sS'1210025'
p683
S'121'
p684
sS'840_0004'
p685
S'Green-D'
p686
sS'2110069'
p687
S'211'
p688
sS'2110068'
p689
S'211'
p690
sS'831_0008'
p691
S'Green-C'
p692
sS'340117'
p693
S'34'
p694
sS'340119'
p695
S'34'
p696
sS'340118'
p697
S'34'
p698
sS'710031'
p699
S'71'
p700
sS'710030'
p701
S'71'
p702
sS'710036'
p703
S'71'
p704
sS'710035'
p705
S'71'
p706
sS'710034'
p707
S'71'
p708
sS'1940030'
p709
S'8993'
p710
sS'570063'
p711
S'57'
p712
sS'1940034'
p713
S'8993'
p714
sS'9800002'
p715
S'CR-Middleborough'
p716
sS'910023'
p717
S'91'
p718
sS'280059'
p719
S'28'
p720
sS'280058'
p721
S'28'
p722
sS'910026'
p723
S'91'
p724
sS'933_0011'
p725
S'Red'
p726
sS'933_0010'
p727
S'Red'
p728
sS'4260123'
p729
S'426'
p730
sS'280057'
p731
S'28'
p732
sS'280056'
p733
S'28'
p734
sS'600041'
p735
S'60'
p736
sS'930046'
p737
S'93'
p738
sS'930047'
p739
S'93'
p740
sS'930044'
p741
S'93'
p742
sS'510029'
p743
S'51'
p744
sS'4390037'
p745
S'439'
p746
sS'930048'
p747
S'93'
p748
sS'5530027'
p749
S'553'
p750
sS'850026'
p751
S'85'
p752
sS'97030019'
p753
S'9703'
p754
sS'2380048'
p755
S'238'
p756
sS'2380049'
p757
S'238'
p758
sS'920052'
p759
S'92'
p760
sS'300019'
p761
S'30'
p762
sS'780065'
p763
S'78'
p764
sS'780064'
p765
S'78'
p766
sS'600029'
p767
S'60'
p768
sS'2380047'
p769
S'238'
p770
sS'2010022'
p771
S'201'
p772
sS'2010023'
p773
S'201'
p774
sS'780063'
p775
S'78'
p776
sS'4490019'
p777
S'449'
p778
sS'3260028'
p779
S'326'
p780
sS'3260029'
p781
S'326'
p782
sS'4510027'
p783
S'451'
p784
sS'4510026'
p785
S'451'
p786
sS'520103'
p787
S'52'
p788
sS'9830005'
p789
S'CR-Lowell'
p790
sS'990061'
p791
S'99'
p792
sS'4510029'
p793
S'451'
p794
sS'4510028'
p795
S'451'
p796
sS'7140001'
p797
S'714'
p798
sS'4350029'
p799
S'435'
p800
sS'1190037'
p801
S'119'
p802
sS'1190030'
p803
S'119'
p804
sS'4360062'
p805
S'436'
p806
sS'4360063'
p807
S'436'
p808
sS'9790005'
p809
S'CR-Kingston'
p810
sS'1190038'
p811
S'119'
p812
sS'4350027'
p813
S'435'
p814
sS'4350026'
p815
S'435'
p816
sS'520104'
p817
S'52'
p818
sS'700092'
p819
S'70'
p820
sS'9820002'
p821
S'CR-Haverhill'
p822
sS'310037'
p823
S'31'
p824
sS'4560030'
p825
S'456'
p826
sS'450066'
p827
S'45'
p828
sS'4650017'
p829
S'465'
p830
sS'2250049'
p831
S'225'
p832
sS'310038'
p833
S'31'
p834
sS'903_0018'
p835
S'Orange'
p836
sS'770090'
p837
S'77'
p838
sS'670027'
p839
S'67'
p840
sS'2120022'
p841
S'212'
p842
sS'2120023'
p843
S'212'
p844
sS'5050023'
p845
S'505'
p846
sS'2120021'
p847
S'212'
p848
sS'5050024'
p849
S'505'
p850
sS'950058'
p851
S'95'
p852
sS'9900001'
p853
S'CR-Greenbush'
p854
sS'4110056'
p855
S'411'
p856
sS'4110057'
p857
S'411'
p858
sS'1060118'
p859
S'106'
p860
sS'260021'
p861
S'26'
p862
sS'1060116'
p863
S'106'
p864
sS'1060117'
p865
S'106'
p866
sS'430029'
p867
S'43'
p868
sS'1060115'
p869
S'106'
p870
sS'1060112'
p871
S'106'
p872
sS'160086'
p873
S'16'
p874
sS'1060110'
p875
S'106'
p876
sS'1060111'
p877
S'106'
p878
sS'1700018'
p879
S'170'
p880
sS'1700019'
p881
S'170'
p882
sS'2400046'
p883
S'240'
p884
sS'190080'
p885
S'19'
p886
sS'190081'
p887
S'19'
p888
sS'890031'
p889
S'89'
p890
sS'950060'
p891
S'95'
p892
sS'5050022'
p893
S'505'
p894
sS'4410106'
p895
S'441'
p896
sS'1050037'
p897
S'105'
p898
sS'1360058'
p899
S'136'
p900
sS'700052'
p901
S'70'
p902
sS'4410104'
p903
S'441'
p904
sS'5010048'
p905
S'501'
p906
sS'900030'
p907
S'90'
p908
sS'4420097'
p909
S'442'
p910
sS'4260083'
p911
S'426'
p912
sS'4260082'
p913
S'426'
p914
sS'4260081'
p915
S'426'
p916
sS'4260080'
p917
S'426'
p918
sS'2380056'
p919
S'238'
p920
sS'1160050'
p921
S'116'
p922
sS'1160051'
p923
S'116117'
p924
sS'1160052'
p925
S'116117'
p926
sS'1010113'
p927
S'101'
p928
sS'4650014'
p929
S'465'
p930
sS'700053'
p931
S'70'
p932
sS'830037'
p933
S'83'
p934
sS'520076'
p935
S'52'
p936
sS'520077'
p937
S'52'
p938
sS'520075'
p939
S'52'
p940
sS'260019'
p941
S'26'
p942
sS'140040'
p943
S'14'
p944
sS'140043'
p945
S'14'
p946
sS'390049'
p947
S'39'
p948
sS'34E0074'
p949
S'34E'
p950
sS'4390038'
p951
S'439'
p952
sS'5040041'
p953
S'504'
p954
sS'34E0070'
p955
S'34E'
p956
sS'34E0071'
p957
S'34E'
p958
sS'34E0072'
p959
S'34E'
p960
sS'34E0073'
p961
S'34E'
p962
sS'4410108'
p963
S'441'
p964
sS'2400074'
p965
S'240'
p966
sS'2400075'
p967
S'240'
p968
sS'2400076'
p969
S'240'
p970
sS'2400077'
p971
S'240'
p972
sS'430028'
p973
S'43'
p974
sS'4340020'
p975
S'434'
p976
sS'4340021'
p977
S'434'
p978
sS'550024'
p979
S'55'
p980
sS'2020032'
p981
S'202'
p982
sS'2020033'
p983
S'202'
p984
sS'2020030'
p985
S'202'
p986
sS'9890008'
p987
S'CR-Providence'
p988
sS'4420074'
p989
S'441442'
p990
sS'750017'
p991
S'75'
p992
sS'750016'
p993
S'75'
p994
sS'080073'
p995
g446
sS'080072'
p996
g446
sS'080071'
p997
g446
sS'080070'
p998
g446
sS'70A0023'
p999
S'70A'
p1000
sS'70A0022'
p1001
S'70A'
p1002
sS'210025'
p1003
S'21'
p1004
sS'70A0020'
p1005
S'70A'
p1006
sS'160065'
p1007
S'16'
p1008
sS'160067'
p1009
S'16'
p1010
sS'1080070'
p1011
S'108'
p1012
sS'1120059'
p1013
S'112'
p1014
sS'350041'
p1015
S'35'
p1016
sS'260018'
p1017
S'26'
p1018
sS'160069'
p1019
S'16'
p1020
sS'160068'
p1021
S'16'
p1022
sS'4420071'
p1023
S'442'
p1024
sS'100049'
p1025
S'10'
p1026
sS'100048'
p1027
S'10'
p1028
sS'280060'
p1029
S'28'
p1030
sS'5530045'
p1031
S'553'
p1032
sS'150080'
p1033
S'15'
p1034
sS'150081'
p1035
S'15'
p1036
sS'150082'
p1037
S'15'
p1038
sS'150083'
p1039
S'15'
p1040
sS'150084'
p1041
S'15'
p1042
sS'150085'
p1043
S'15'
p1044
sS'150086'
p1045
S'15'
p1046
sS'150087'
p1047
S'15'
p1048
sS'1090061'
p1049
S'109'
p1050
sS'330051'
p1051
S'33'
p1052
sS'1090062'
p1053
S'109'
p1054
sS'1090069'
p1055
S'109'
p1056
sS'4500068'
p1057
S'450'
p1058
sS'890058'
p1059
S'89'
p1060
sS'4420070'
p1061
S'442'
p1062
sS'400026'
p1063
S'4050'
p1064
sS'810_0005'
p1065
S'Green-B'
p1066
sS'240059'
p1067
S'2427'
p1068
sS'9790002'
p1069
S'CR-Kingston'
p1070
sS'070035'
p1071
g28
sS'7160002'
p1072
S'716'
p1073
sS'9790006'
p1074
S'CR-Kingston'
p1075
sS'9790007'
p1076
S'CR-Kingston'
p1077
sS'9790004'
p1078
S'CR-Kingston'
p1079
sS'240050'
p1080
S'2427'
p1081
sS'640044'
p1082
S'64'
p1083
sS'640045'
p1084
S'64'
p1085
sS'2450033'
p1086
S'245'
p1087
sS'4650011'
p1088
S'465'
p1089
sS'2450035'
p1090
S'245'
p1091
sS'2450034'
p1092
S'245'
p1093
sS'2450037'
p1094
S'245'
p1095
sS'2450036'
p1096
S'245'
p1097
sS'2450038'
p1098
S'245'
p1099
sS'320076'
p1100
S'32'
p1101
sS'170037'
p1102
S'17'
p1103
sS'170036'
p1104
S'17'
p1105
sS'570061'
p1106
S'57'
p1107
sS'550039'
p1108
S'55'
p1109
sS'570062'
p1110
S'57'
p1111
sS'550038'
p1112
S'55'
p1113
sS'97020015'
p1114
S'9702'
p1115
sS'500015'
p1116
S'50'
p1117
sS'1340085'
p1118
S'134'
p1119
sS'4480014'
p1120
S'448'
p1121
sS'4350043'
p1122
S'435'
p1123
sS'1320027'
p1124
S'132'
p1125
sS'1320026'
p1126
S'132'
p1127
sS'880053'
p1128
S'88'
p1129
sS'2150044'
p1130
S'215'
p1131
sS'970023'
p1132
S'97'
p1133
sS'5030034'
p1134
S'503'
p1135
sS'740021'
p1136
S'74'
p1137
sS'450051'
p1138
S'45'
p1139
sS'4350046'
p1140
S'435'
p1141
sS'870090'
p1142
S'87'
p1143
sS'870091'
p1144
S'87'
p1145
sS'230070'
p1146
S'23'
p1147
sS'230071'
p1148
S'23'
p1149
sS'2250073'
p1150
S'225'
p1151
sS'2250072'
p1152
S'225'
p1153
sS'2250071'
p1154
S'225'
p1155
sS'2250070'
p1156
S'225'
p1157
sS'2250076'
p1158
S'225'
p1159
sS'2250075'
p1160
S'225'
p1161
sS'2250074'
p1162
S'225'
p1163
sS'7140004'
p1164
S'714'
p1165
sS'2220038'
p1166
S'222'
p1167
sS'2220039'
p1168
S'222'
p1169
sS'2220034'
p1170
S'222'
p1171
sS'2220035'
p1172
S'222'
p1173
sS'2220036'
p1174
S'222'
p1175
sS'2220037'
p1176
S'222'
p1177
sS'7100016'
p1178
S'710'
p1179
sS'4550094'
p1180
S'455'
p1181
sS'4350048'
p1182
S'435'
p1183
sS'790036'
p1184
S'79'
p1185
sS'790035'
p1186
S'79'
p1187
sS'790034'
p1188
S'79'
p1189
sS'903_0017'
p1190
S'Orange'
p1191
sS'700050'
p1192
S'70'
p1193
sS'190075'
p1194
S'19'
p1195
sS'690069'
p1196
S'69'
p1197
sS'690068'
p1198
S'69'
p1199
sS'700054'
p1200
S'70'
p1201
sS'1000047'
p1202
S'100'
p1203
sS'5030026'
p1204
S'503'
p1205
sS'440064'
p1206
S'44'
p1207
sS'440065'
p1208
S'44'
p1209
sS'1000048'
p1210
S'100'
p1211
sS'440060'
p1212
S'44'
p1213
sS'1010114'
p1214
S'101'
p1215
sS'440062'
p1216
S'44'
p1217
sS'440063'
p1218
S'44'
p1219
sS'5040039'
p1220
S'504'
p1221
sS'470046'
p1222
S'47'
p1223
sS'1110096'
p1224
S'111'
p1225
sS'350051'
p1226
S'35'
p1227
sS'960048'
p1228
S'96'
p1229
sS'34E0039'
p1230
S'34E'
p1231
sS'1360062'
p1232
S'136'
p1233
sS'4290110'
p1234
S'429'
p1235
sS'4290111'
p1236
S'429'
p1237
sS'940048'
p1238
S'94'
p1239
sS'360059'
p1240
S'36'
p1241
sS'34E0036'
p1242
S'34E'
p1243
sS'2110076'
p1244
S'211'
p1245
sS'960046'
p1246
S'96'
p1247
sS'960045'
p1248
S'96'
p1249
sS'2110075'
p1250
S'211'
p1251
sS'960043'
p1252
S'96'
p1253
sS'7470015'
p1254
S'747'
p1255
sS'960044'
p1256
S'96'
p1257
sS'7470019'
p1258
S'747'
p1259
sS'4290098'
p1260
S'429'
p1261
sS'100071'
p1262
S'10'
p1263
sS'1210037'
p1264
S'121'
p1265
sS'1340132'
p1266
S'134'
p1267
sS'1340131'
p1268
S'134'
p1269
sS'1340130'
p1270
S'134'
p1271
sS'4290096'
p1272
S'429'
p1273
sS'2360015'
p1274
S'236'
p1275
sS'290065'
p1276
S'29'
p1277
sS'290064'
p1278
S'29'
p1279
sS'290063'
p1280
S'29'
p1281
sS'290062'
p1282
S'29'
p1283
sS'290061'
p1284
S'29'
p1285
sS'1080065'
p1286
S'108'
p1287
sS'360056'
p1288
S'36'
p1289
sS'1000035'
p1290
S'100'
p1291
sS'1000034'
p1292
S'100'
p1293
sS'1000033'
p1294
S'100'
p1295
sS'1000032'
p1296
S'100'
p1297
sS'5580032'
p1298
S'558'
p1299
sS'5580033'
p1300
S'558'
p1301
sS'040019'
p1302
S'4'
p1303
sS'040018'
p1304
g1303
sS'350053'
p1305
S'35'
p1306
sS'360054'
p1307
S'36'
p1308
sS'350039'
p1309
S'35'
p1310
sS'1170081'
p1311
S'117'
p1312
sS'360055'
p1313
S'36'
p1314
sS'4280009'
p1315
S'428'
p1316
sS'620053'
p1317
S'62'
p1318
sS'1120060'
p1319
S'112'
p1320
sS'852_0013'
p1321
S'Green-D'
p1322
sS'1200066'
p1323
S'120'
p1324
sS'360053'
p1325
S'36'
p1326
sS'3500069'
p1327
S'350'
p1328
sS'9890009'
p1329
S'CR-Providence'
p1330
sS'840026'
p1331
S'84'
p1332
sS'840027'
p1333
S'84'
p1334
sS'2250053'
p1335
S'225'
p1336
sS'3500061'
p1337
S'350'
p1338
sS'510034'
p1339
S'51'
p1340
sS'2100022'
p1341
S'210'
p1342
sS'2100023'
p1343
S'210'
p1344
sS'510031'
p1345
S'51'
p1346
sS'840029'
p1347
S'84'
p1348
sS'880_0011'
p1349
S'Green-E'
p1350
sS'080041'
p1351
g446
sS'080046'
p1352
g446
sS'920046'
p1353
S'92'
p1354
sS'920045'
p1355
S'92'
p1356
sS'570058'
p1357
S'57'
p1358
sS'920048'
p1359
S'92'
p1360
sS'2140051'
p1361
S'214'
p1362
sS'2140050'
p1363
S'214'
p1364
sS'7510010'
p1365
S'751'
p1366
sS'1910023'
p1367
S'15'
p1368
sS'090056'
p1369
g206
sS'090057'
p1370
g206
sS'4350033'
p1371
S'435'
p1372
sS'4350030'
p1373
S'435'
p1374
sS'390042'
p1375
S'39'
p1376
sS'390043'
p1377
S'39'
p1378
sS'950068'
p1379
S'95'
p1380
sS'1910029'
p1381
S'15'
p1382
sS'390046'
p1383
S'39'
p1384
sS'090059'
p1385
g206
sS'1930031'
p1386
S'57'
p1387
sS'1930030'
p1388
S'57'
p1389
sS'340122'
p1390
S'34'
p1391
sS'770089'
p1392
S'77'
p1393
sS'6270025'
p1394
S'627'
p1395
sS'4290068'
p1396
S'429'
p1397
sS'1190029'
p1398
S'119'
p1399
sS'931_0014'
p1400
S'Red'
p1401
sS'570090'
p1402
S'57'
p1403
sS'990059'
p1404
S'99'
p1405
sS'990058'
p1406
S'99'
p1407
sS'990057'
p1408
S'99'
p1409
sS'7410009'
p1410
S'741'
p1411
sS'370024'
p1412
S'37'
p1413
sS'370022'
p1414
S'37'
p1415
sS'370023'
p1416
S'37'
p1417
sS'370021'
p1418
S'37'
p1419
sS'360072'
p1420
S'36'
p1421
sS'9790003'
p1422
S'CR-Kingston'
p1423
sS'070054'
p1424
g28
sS'240060'
p1425
S'24'
p1426
sS'5580030'
p1427
S'558'
p1428
sS'880047'
p1429
S'88'
p1430
sS'5580031'
p1431
S'558'
p1432
sS'7130010'
p1433
S'713'
p1434
sS'800029'
p1435
S'80'
p1436
sS'7420020'
p1437
S'742'
p1438
sS'7420021'
p1439
S'742'
p1440
sS'4350044'
p1441
S'435'
p1442
sS'4390022'
p1443
S'439'
p1444
sS'7460006'
p1445
S'746'
p1446
sS'7080038'
p1447
S'708'
p1448
sS'3260045'
p1449
S'326'
p1450
sS'3260046'
p1451
S'326'
p1452
sS'842_0007'
p1453
S'Green-D'
p1454
sS'1700021'
p1455
S'170'
p1456
sS'1700022'
p1457
S'170'
p1458
sS'2160048'
p1459
S'216'
p1460
sS'4240027'
p1461
S'424'
p1462
sS'360104'
p1463
S'36'
p1464
sS'4240026'
p1465
S'424'
p1466
sS'2160040'
p1467
S'216'
p1468
sS'852_0012'
p1469
S'Green-D'
p1470
sS'2160044'
p1471
S'216'
p1472
sS'2160045'
p1473
S'214216'
p1474
sS'2160046'
p1475
S'216'
p1476
sS'2160047'
p1477
S'214216'
p1478
sS'360064'
p1479
S'36'
p1480
sS'7120029'
p1481
S'712'
p1482
sS'220103'
p1483
S'22'
p1484
sS'1170079'
p1485
S'117'
p1486
sS'813_0004'
p1487
S'Green-B'
p1488
sS'813_0003'
p1489
S'Green-B'
p1490
sS'220106'
p1491
S'22'
p1492
sS'220105'
p1493
S'22'
p1494
sS'220104'
p1495
S'22'
p1496
sS'9870002'
p1497
S'CR-Fairmount'
p1498
sS'010058'
p1499
S'1'
p1500
sS'880087'
p1501
S'88'
p1502
sS'880056'
p1503
S'88'
p1504
sS'730067'
p1505
S'73'
p1506
sS'2200025'
p1507
S'220'
p1508
sS'2200024'
p1509
S'220'
p1510
sS'2200027'
p1511
S'220'
p1512
sS'2200026'
p1513
S'220'
p1514
sS'1160060'
p1515
S'116'
p1516
sS'910040'
p1517
S'91'
p1518
sS'910041'
p1519
S'91'
p1520
sS'2200029'
p1521
S'220'
p1522
sS'2200028'
p1523
S'220'
p1524
sS'4410096'
p1525
S'441'
p1526
sS'520102'
p1527
S'52'
p1528
sS'110038'
p1529
S'11'
p1530
sS'520106'
p1531
S'52'
p1532
sS'4260095'
p1533
S'426'
p1534
sS'4260096'
p1535
S'426'
p1536
sS'520105'
p1537
S'52'
p1538
sS'110031'
p1539
S'11'
p1540
sS'6080005'
p1541
S'608'
p1542
sS'110033'
p1543
S'11'
p1544
sS'110037'
p1545
S'11'
p1546
sS'7410008'
p1547
S'741'
p1548
sS'260020'
p1549
S'26'
p1550
sS'2400044'
p1551
S'240'
p1552
sS'2400047'
p1553
S'240'
p1554
sS'220074'
p1555
S'22'
p1556
sS'931_0013'
p1557
S'Red'
p1558
sS'9880005'
p1559
S'CR-Franklin'
p1560
sS'890030'
p1561
S'89'
p1562
sS'2400049'
p1563
S'240'
p1564
sS'2400048'
p1565
S'240'
p1566
sS'34E0041'
p1567
S'34E'
p1568
sS'34E0040'
p1569
S'34E'
p1570
sS'34E0043'
p1571
S'34E'
p1572
sS'34E0042'
p1573
S'34E'
p1574
sS'34E0044'
p1575
S'34E'
p1576
sS'34E0049'
p1577
S'34E'
p1578
sS'4420076'
p1579
S'442'
p1580
sS'931_0010'
p1581
S'Red'
p1582
sS'380050'
p1583
S'3738'
p1584
sS'380051'
p1585
S'3738'
p1586
sS'4420072'
p1587
S'441442'
p1588
sS'4420073'
p1589
S'442'
p1590
sS'940047'
p1591
S'94'
p1592
sS'940046'
p1593
S'94'
p1594
sS'2020043'
p1595
S'202'
p1596
sS'2020042'
p1597
S'202'
p1598
sS'2020041'
p1599
S'202'
p1600
sS'2020040'
p1601
S'202'
p1602
sS'870054'
p1603
S'87'
p1604
sS'2020044'
p1605
S'202'
p1606
sS'1010079'
p1607
S'101'
p1608
sS'500016'
p1609
S'50'
p1610
sS'2110046'
p1611
S'211'
p1612
sS'2110045'
p1613
S'211'
p1614
sS'2110044'
p1615
S'211'
p1616
sS'510038'
p1617
S'51'
p1618
sS'2360013'
p1619
S'236'
p1620
sS'2360012'
p1621
S'236'
p1622
sS'100070'
p1623
S'10'
p1624
sS'2360014'
p1625
S'236'
p1626
sS'1080066'
p1627
S'108'
p1628
sS'350052'
p1629
S'35'
p1630
sS'1120061'
p1631
S'112'
p1632
sS'1080069'
p1633
S'108'
p1634
sS'890057'
p1635
S'89'
p1636
sS'890051'
p1637
S'89'
p1638
sS'890052'
p1639
S'89'
p1640
sS'890053'
p1641
S'89'
p1642
sS'280071'
p1643
S'28'
p1644
sS'280070'
p1645
S'28'
p1646
sS'280072'
p1647
S'28'
p1648
sS'5530037'
p1649
S'553'
p1650
sS'930058'
p1651
S'93'
p1652
sS'510037'
p1653
S'51'
p1654
sS'813_0005'
p1655
S'Green-B'
p1656
sS'946_0009'
p1657
S'Blue'
p1658
sS'1090070'
p1659
S'109'
p1660
sS'950044'
p1661
S'95'
p1662
sS'880_0010'
p1663
S'Green-E'
p1664
sS'4420069'
p1665
S'442'
p1666
sS'880_0012'
p1667
S'Green-E'
p1668
sS'880086'
p1669
S'88'
p1670
sS'840028'
p1671
S'84'
p1672
sS'7410010'
p1673
S'741'
p1674
sS'5560013'
p1675
S'556'
p1676
sS'400033'
p1677
S'4050'
p1678
sS'400032'
p1679
S'40'
p1680
sS'400031'
p1681
S'40'
p1682
sS'9810001'
p1683
S'CR-Newburyport'
p1684
sS'400035'
p1685
S'40'
p1686
sS'400034'
p1687
S'40'
p1688
sS'870059'
p1689
S'87'
p1690
sS'950045'
p1691
S'95'
p1692
sS'320069'
p1693
S'32'
p1694
sS'320068'
p1695
S'32'
p1696
sS'7410017'
p1697
S'741'
p1698
sS'320063'
p1699
S'32'
p1700
sS'4390036'
p1701
S'439'
p1702
sS'7410018'
p1703
S'741'
p1704
sS'320067'
p1705
S'32'
p1706
sS'320066'
p1707
S'32'
p1708
sS'320065'
p1709
S'32'
p1710
sS'320064'
p1711
S'32'
p1712
sS'4420104'
p1713
S'442'
p1714
sS'2170039'
p1715
S'217'
p1716
sS'5530044'
p1717
S'553'
p1718
sS'4360044'
p1719
S'436'
p1720
sS'4360045'
p1721
S'436'
p1722
sS'4360046'
p1723
S'436'
p1724
sS'4360047'
p1725
S'436'
p1726
sS'4360048'
p1727
S'436'
p1728
sS'1340091'
p1729
S'134'
p1730
sS'4390035'
p1731
S'439'
p1732
sS'660057'
p1733
S'66'
p1734
sS'1040033'
p1735
S'104'
p1736
sS'4480023'
p1737
S'448'
p1738
sS'4480022'
p1739
S'448'
p1740
sS'4480025'
p1741
S'448'
p1742
sS'320080'
p1743
S'3233'
p1744
sS'930059'
p1745
S'93'
p1746
sS'1040034'
p1747
S'104'
p1748
sS'2150051'
p1749
S'215'
p1750
sS'2150052'
p1751
S'215'
p1752
sS'1370036'
p1753
S'137'
p1754
sS'2150054'
p1755
S'215'
p1756
sS'720026'
p1757
S'72'
p1758
sS'720025'
p1759
S'72'
p1760
sS'9890004'
p1761
S'CR-Providence'
p1762
sS'360103'
p1763
S'36'
p1764
sS'1200071'
p1765
S'120'
p1766
sS'1200070'
p1767
S'120'
p1768
sS'360106'
p1769
S'36'
p1770
sS'550026'
p1771
S'55'
p1772
sS'940053'
p1773
S'94'
p1774
sS'2250068'
p1775
S'225'
p1776
sS'2250069'
p1777
S'225'
p1778
sS'230067'
p1779
S'23'
p1780
sS'230066'
p1781
S'23'
p1782
sS'1060097'
p1783
S'106'
p1784
sS'1060099'
p1785
S'106'
p1786
sS'1060098'
p1787
S'106'
p1788
sS'230069'
p1789
S'23'
p1790
sS'070053'
p1791
g28
sS'2250067'
p1792
S'225'
p1793
sS'931_0009'
p1794
S'Red'
p1795
sS'4420100'
p1796
S'442'
p1797
sS'9860002'
p1798
S'CR-Needham'
p1799
sS'4420101'
p1800
S'442'
p1801
sS'1920018'
p1802
S'39'
p1803
sS'4420102'
p1804
S'442'
p1805
sS'590019'
p1806
S'59'
p1807
sS'590018'
p1808
S'59'
p1809
sS'590017'
p1810
S'59'
p1811
sS'7420014'
p1812
S'742'
p1813
sS'7140005'
p1814
S'714'
p1815
sS'4420103'
p1816
S'441442'
p1817
sS'7140003'
p1818
S'714'
p1819
sS'390048'
p1820
S'39'
p1821
sS'7100006'
p1822
S'710'
p1823
sS'650026'
p1824
S'65'
p1825
sS'2160031'
p1826
S'216'
p1827
sS'2160030'
p1828
S'216'
p1829
sS'2160033'
p1830
S'214216'
p1831
sS'2160032'
p1832
S'216'
p1833
sS'9880002'
p1834
S'CR-Franklin'
p1835
sS'650025'
p1836
S'65'
p1837
sS'4360049'
p1838
S'436'
p1839
sS'4110070'
p1840
S'411'
p1841
sS'4110071'
p1842
S'411'
p1843
sS'700051'
p1844
S'70'
p1845
sS'9810002'
p1846
S'CR-Newburyport'
p1847
sS'1110088'
p1848
S'111'
p1849
sS'1110089'
p1850
S'111'
p1851
sS'730046'
p1852
S'73'
p1853
sS'730047'
p1854
S'73'
p1855
sS'7460007'
p1856
S'746'
p1857
sS'5030027'
p1858
S'503'
p1859
sS'900026'
p1860
S'90'
p1861
sS'730066'
p1862
S'73'
p1863
sS'730048'
p1864
S'73'
p1865
sS'830035'
p1866
S'83'
p1867
sS'830036'
p1868
S'83'
p1869
sS'3250037'
p1870
S'325'
p1871
sS'4550081'
p1872
S'455'
p1873
sS'4550080'
p1874
S'455'
p1875
sS'3510066'
p1876
S'351'
p1877
sS'3510067'
p1878
S'351'
p1879
sS'4550085'
p1880
S'455'
p1881
sS'4550084'
p1882
S'455'
p1883
sS'4550087'
p1884
S'455'
p1885
sS'4550086'
p1886
S'455'
p1887
sS'4550088'
p1888
S'455'
p1889
sS'4290102'
p1890
S'429'
p1891
sS'860051'
p1892
S'86'
p1893
sS'350045'
p1894
S'35'
p1895
sS'900025'
p1896
S'90'
p1897
sS'380041'
p1898
S'38'
p1899
sS'5560019'
p1900
S'556'
p1901
sS'6270026'
p1902
S'627'
p1903
sS'1340120'
p1904
S'134'
p1905
sS'1340121'
p1906
S'134'
p1907
sS'1340122'
p1908
S'134'
p1909
sS'1340123'
p1910
S'134'
p1911
sS'110044'
p1912
S'11'
p1913
sS'1340125'
p1914
S'134'
p1915
sS'1340126'
p1916
S'134'
p1917
sS'1340127'
p1918
S'134'
p1919
sS'1340128'
p1920
S'134'
p1921
sS'1340129'
p1922
S'134'
p1923
sS'4480024'
p1924
S'448'
p1925
sS'520094'
p1926
S'52'
p1927
sS'5030025'
p1928
S'503'
p1929
sS'990060'
p1930
S'99'
p1931
sS'520092'
p1932
S'52'
p1933
sS'520093'
p1934
S'52'
p1935
sS'1950013'
p1936
S'195'
p1937
sS'4260108'
p1938
S'426'
p1939
sS'4260109'
p1940
S'426'
p1941
sS'040020'
p1942
g1303
sS'040021'
p1943
g1303
sS'930045'
p1944
S'93'
p1945
sS'5050021'
p1946
S'505'
p1947
sS'5010047'
p1948
S'501'
p1949
sS'70A0021'
p1950
S'70A'
p1951
sS'850028'
p1952
S'85'
p1953
sS'4300051'
p1954
S'430'
p1955
sS'4300050'
p1956
S'430'
p1957
sS'4300053'
p1958
S'430'
p1959
sS'4300052'
p1960
S'430'
p1961
sS'5010049'
p1962
S'501'
p1963
sS'4290067'
p1964
S'429'
p1965
sS'1080073'
p1966
S'108'
p1967
sS'600028'
p1968
S'60'
p1969
sS'2150053'
p1970
S'215'
p1971
sS'780041'
p1972
S'78'
p1973
sS'1100053'
p1974
S'110'
p1975
sS'720027'
p1976
S'72'
p1977
sS'930060'
p1978
S'93'
p1979
sS'4590010'
p1980
S'459'
p1981
sS'3520035'
p1982
S'352'
p1983
sS'2140048'
p1984
S'214'
p1985
sS'2140049'
p1986
S'214'
p1987
sS'840_0005'
p1988
S'Green-D'
p1989
sS'2010040'
p1990
S'201'
p1991
sS'2010041'
p1992
S'201'
p1993
sS'2010042'
p1994
S'201'
p1995
sS'2140046'
p1996
S'214'
p1997
sS'2140047'
p1998
S'214'
p1999
sS'2140044'
p2000
S'214'
p2001
sS'2140045'
p2002
S'214'
p2003
sS'390059'
p2004
S'39'
p2005
sS'4350042'
p2006
S'435'
p2007
sS'4350041'
p2008
S'435'
p2009
sS'4350040'
p2010
S'435'
p2011
sS'4350047'
p2012
S'435'
p2013
sS'1100054'
p2014
S'110'
p2015
sS'1010081'
p2016
S'101'
p2017
sS'1010080'
p2018
S'101'
p2019
sS'390051'
p2020
S'39'
p2021
sS'390050'
p2022
S'39'
p2023
sS'4350049'
p2024
S'435'
p2025
sS'1100055'
p2026
S'110'
p2027
sS'1010088'
p2028
S'101'
p2029
sS'830_0004'
p2030
S'Green-C'
p2031
sS'190077'
p2032
S'19'
p2033
sS'4260079'
p2034
S'426'
p2035
sS'4260076'
p2036
S'426'
p2037
sS'4260077'
p2038
S'426'
p2039
sS'4290095'
p2040
S'429'
p2041
sS'4290094'
p2042
S'429'
p2043
sS'4290093'
p2044
S'429'
p2045
sS'4290092'
p2046
S'429'
p2047
sS'360105'
p2048
S'36'
p2049
sS'5020016'
p2050
S'502'
p2051
sS'5530046'
p2052
S'553'
p2053
sS'950057'
p2054
S'95'
p2055
sS'270021'
p2056
S'27'
p2057
sS'7080050'
p2058
S'708'
p2059
sS'410045'
p2060
S'41'
p2061
sS'410044'
p2062
S'41'
p2063
sS'410043'
p2064
S'41'
p2065
sS'710032'
p2066
S'71'
p2067
sS'3500083'
p2068
S'350'
p2069
sS'3500082'
p2070
S'350'
p2071
sS'3500081'
p2072
S'350'
p2073
sS'3500080'
p2074
S'350'
p2075
sS'360063'
p2076
S'36'
p2077
sS'4500067'
p2078
S'450'
p2079
sS'3500084'
p2080
S'350'
p2081
sS'7420019'
p2082
S'742'
p2083
sS'7420018'
p2084
S'742'
p2085
sS'4550079'
p2086
S'455'
p2087
sS'7420012'
p2088
S'742'
p2089
sS'7420015'
p2090
S'742'
p2091
sS'2140032'
p2092
S'214'
p2093
sS'7420017'
p2094
S'742'
p2095
sS'7420016'
p2096
S'742'
p2097
sS'2170042'
p2098
S'217'
p2099
sS'760049'
p2100
S'76'
p2101
sS'990056'
p2102
S'99'
p2103
sS'7250029'
p2104
S'725'
p2105
sS'7250028'
p2106
S'725'
p2107
sS'3500079'
p2108
S'350'
p2109
sS'970024'
p2110
S'97'
p2111
sS'230065'
p2112
S'23'
p2113
sS'010038'
p2114
g1500
sS'230064'
p2115
S'23'
p2116
sS'770057'
p2117
S'77'
p2118
sS'4500071'
p2119
S'450'
p2120
sS'4500070'
p2121
S'450'
p2122
sS'9900002'
p2123
S'CR-Greenbush'
p2124
sS'100041'
p2125
S'10'
p2126
sS'620048'
p2127
S'62'
p2128
sS'620049'
p2129
S'62'
p2130
sS'5530030'
p2131
S'553'
p2132
sS'899_0005'
p2133
S'Mattapan'
p2134
sS'899_0006'
p2135
S'Mattapan'
p2136
sS'1170060'
p2137
S'117'
p2138
sS'180026'
p2139
S'18'
p2140
sS'180025'
p2141
S'18'
p2142
sS'4590011'
p2143
S'459'
p2144
sS'1100056'
p2145
S'110'
p2146
sS'1100057'
p2147
S'110'
p2148
sS'1170066'
p2149
S'117'
p2150
sS'1170067'
p2151
S'117'
p2152
sS'100045'
p2153
S'10'
p2154
sS'1310040'
p2155
S'131'
p2156
sS'7120030'
p2157
S'712'
p2158
sS'880048'
p2159
S'88'
p2160
sS'7120032'
p2161
S'712'
p2162
sS'100044'
p2163
S'10'
p2164
sS'700091'
p2165
S'70'
p2166
sS'4310008'
p2167
S'431'
p2168
sS'100047'
p2169
S'10'
p2170
sS'1140014'
p2171
S'114'
p2172
sS'1140015'
p2173
S'114'
p2174
sS'100046'
p2175
S'10'
p2176
sS'700090'
p2177
S'70'
p2178
sS'4310006'
p2179
S'431'
p2180
sS'4310005'
p2181
S'431'
p2182
s.